(dp0
VNZ_AYNL01000018
p1
S'PRJNA224116'
p2
sVNZ_AHGB01000061
p3
S'PRJNA190314'
p4
sVNZ_JH974117
p5
S'181740'
p6
sVNZ_AWLS01000091
p7
S'PRJNA224116'
p8
sVNZ_AWLS01000092
p9
S'PRJNA224116'
p10
sVNC_009783
p11
S'58957'
p12
sVNZ_AWKD01000142
p13
S'PRJNA224116'
p14
sVNZ_JH976035
p15
S'181741'
p16
sVNZ_AWIQ01000020
p17
S'PRJNA224116'
p18
sVNZ_DS180278
p19
S'54593'
p20
sVNZ_JH976038
p21
S'181741'
p22
sVNZ_AWND01000157
p23
S'PRJNA224116'
p24
sVNZ_AXNM01000084
p25
S'PRJNA224116'
p26
sVNZ_JH941252
p27
S'181807'
p28
sVNZ_AELJ01000042
p29
S'PRJNA190214'
p30
sVNZ_AWIY01000286
p31
S'PRJNA224116'
p32
sVNZ_AWLY01000129
p33
S'PRJNA224116'
p34
sVNZ_AWHU01000164
p35
S'PRJNA224116'
p36
sVNZ_AWJK01000488
p37
S'PRJNA224116'
p38
sVNZ_AWKS01000092
p39
S'PRJNA224116'
p40
sVNZ_AJZL01000184
p41
S'PRJNA200179'
p42
sVNZ_JH377753
p43
S'181605'
p44
sVNZ_AWKR01000116
p45
S'PRJNA224116'
p46
sVNZ_GL988384
p47
S'181558'
p48
sVNZ_GL988382
p49
S'181558'
p50
sVNZ_AWHO01000062
p51
S'PRJNA224116'
p52
sVNZ_AXNN01000005
p53
S'PRJNA224116'
p54
sVNZ_AWLD01000177
p55
S'PRJNA224116'
p56
sVNZ_JH941100
p57
S'181796'
p58
sVNZ_AHFZ01000017
p59
S'PRJNA190314'
p60
sVNZ_JH941105
p61
S'181796'
p62
sVNZ_JH941104
p63
S'181796'
p64
sVNZ_AHFZ01000016
p65
S'PRJNA190314'
p66
sVNZ_AWIO01000109
p67
S'PRJNA224116'
p68
sVNZ_BAVG01000004
p69
S'PRJNA224116'
p70
sVNZ_ANBX01000027
p71
S'PRJNA199863'
p72
sVNZ_BAVG01000008
p73
S'PRJNA224116'
p74
sVNZ_AHFY01000062
p75
S'PRJNA190314'
p76
sVNZ_AWNB01000024
p77
S'PRJNA224116'
p78
sVNZ_DS177950
p79
S'54589'
p80
sVNZ_DS177951
p81
S'54589'
p82
sVNZ_GL989090
p83
S'181562'
p84
sVNZ_AMWU01000106
p85
S'PRJNA201364'
p86
sVNZ_JH967532
p87
S'181728'
p88
sVNZ_DS177959
p89
S'54589'
p90
sVNZ_AWLT01000322
p91
S'PRJNA224116'
p92
sVNZ_GL989099
p93
S'181562'
p94
sVNZ_AWJV01000376
p95
S'PRJNA224116'
p96
sVNZ_AJYQ01000117
p97
S'PRJNA200159'
p98
sVNZ_KB663590
p99
S'195211'
p100
sVNZ_AWMU01000126
p101
S'PRJNA224116'
p102
sVNZ_GL988257
p103
S'181558'
p104
sVNZ_AEQS01000144
p105
S'PRJNA200502'
p106
sVNZ_JH377543
p107
S'181608'
p108
sVNZ_AJZM01000095
p109
S'PRJNA200180'
p110
sVNZ_JH377544
p111
S'181608'
p112
sVNZ_JH377545
p113
S'181608'
p114
sVNZ_AWKG01000015
p115
S'PRJNA224116'
p116
sVNZ_JPKV01000017
p117
S'PRJNA224116'
p118
sVNZ_JPKV01000014
p119
S'PRJNA224116'
p120
sVNZ_JH377403
p121
S'181607'
p122
sVNZ_AMWR01000012
p123
S'PRJNA201361'
p124
sVNZ_AWMQ01000057
p125
S'PRJNA224116'
p126
sVNZ_AWHX01000237
p127
S'PRJNA224116'
p128
sVNZ_AMWR01000019
p129
S'PRJNA201361'
p130
sVNZ_KB661999
p131
S'195207'
p132
sVNZ_AEZB01000172
p133
S'PRJNA200508'
p134
sVNZ_KB662147
p135
S'195232'
p136
sVNZ_AWIY01000013
p137
S'PRJNA224116'
p138
sVNZ_AWIS01000015
p139
S'PRJNA224116'
p140
sVNZ_GL988414
p141
S'181558'
p142
sVNZ_JH967908
p143
S'181732'
p144
sVNZ_JH967907
p145
S'181732'
p146
sVNZ_AWLJ01000231
p147
S'PRJNA224116'
p148
sVNZ_AWLK01000387
p149
S'PRJNA224116'
p150
sVNZ_AWKL01000123
p151
S'PRJNA224116'
p152
sVNZ_AEZC01000134
p153
S'PRJNA80489'
p154
sVNZ_AMWR01000124
p155
S'PRJNA201361'
p156
sVNZ_AWKL01000124
p157
S'PRJNA224116'
p158
sVNZ_AHGC01000068
p159
S'PRJNA190314'
p160
sVNZ_AWMG01000034
p161
S'PRJNA224116'
p162
sVNZ_AHGC01000063
p163
S'PRJNA190314'
p164
sVNZ_AWIH01000264
p165
S'PRJNA224116'
p166
sVNZ_GL989071
p167
S'181562'
p168
sVNZ_GL989072
p169
S'181562'
p170
sVNZ_GL989073
p171
S'181562'
p172
sVNZ_GL989074
p173
S'181562'
p174
sVNZ_JH973997
p175
S'181737'
p176
sVNZ_AMWV01000175
p177
S'PRJNA201365'
p178
sVNZ_AWLJ01000302
p179
S'PRJNA224116'
p180
sVNZ_AMWV01000177
p181
S'PRJNA201365'
p182
sVNC_012667
p183
S'59387'
p184
sVNZ_AWWL01000334
p185
S'PRJNA222908'
p186
sVNZ_AXNK01000044
p187
S'PRJNA224116'
p188
sVNC_012668
p189
S'59387'
p190
sVNZ_JH967015
p191
S'181725'
p192
sVNZ_AIDB01000100
p193
S'PRJNA200021'
p194
sVNZ_AWJQ01000014
p195
S'PRJNA224116'
p196
sVNZ_AWJL01000517
p197
S'PRJNA224116'
p198
sVNC_016945
p199
S'89389'
p200
sVNC_016944
p201
S'89389'
p202
sVNZ_AWKM01000062
p203
S'PRJNA224116'
p204
sVNZ_AHGL01000069
p205
S'PRJNA190314'
p206
sVNZ_AWKO01000051
p207
S'PRJNA224116'
p208
sVNZ_AWLX01000568
p209
S'PRJNA224116'
p210
sVNZ_AIDS01000069
p211
S'PRJNA200037'
p212
sVNZ_AJZF01000019
p213
S'PRJNA200173'
p214
sVNZ_AJZF01000018
p215
S'PRJNA200173'
p216
sVNZ_AIDS01000064
p217
S'PRJNA200037'
p218
sVNZ_KB662390
p219
S'195224'
p220
sVNZ_KB661198
p221
S'195203'
p222
sVNZ_JH967494
p223
S'181728'
p224
sVNC_022349
p225
S'PRJNA199933'
p226
sVNZ_AWKE01000034
p227
S'PRJNA224116'
p228
sVNZ_KB661194
p229
S'195203'
p230
sVNZ_AQPJ01000363
p231
S'PRJNA202774'
p232
sVNZ_AHGJ01000005
p233
S'PRJNA190314'
p234
sVNZ_AHGJ01000004
p235
S'PRJNA190314'
p236
sVNZ_AHGJ01000006
p237
S'PRJNA190314'
p238
sVNZ_AHGJ01000001
p239
S'PRJNA190314'
p240
sVNZ_AHGJ01000003
p241
S'PRJNA190314'
p242
sVNZ_JH636725
p243
S'PRJNA200025'
p244
sVNZ_JH942563
p245
S'181792'
p246
sVNZ_AHGJ01000008
p247
S'PRJNA190314'
p248
sVNZ_AWIP01000189
p249
S'PRJNA224116'
p250
sVNZ_AMWF01000013
p251
S'PRJNA201360'
p252
sVNZ_AWKL01000056
p253
S'PRJNA224116'
p254
sVNZ_AWIP01000341
p255
S'PRJNA224116'
p256
sVNZ_AWIP01000340
p257
S'PRJNA224116'
p258
sVNZ_AWKL01000058
p259
S'PRJNA224116'
p260
sVNZ_AJYN01000122
p261
S'PRJNA200156'
p262
sVNZ_AELI01000053
p263
S'PRJNA190213'
p264
sVNZ_KB661601
p265
S'195231'
p266
sVNZ_AWMD01000033
p267
S'PRJNA224116'
p268
sVNZ_KB454094
p269
S'PRJNA183744'
p270
sVNZ_AMWW01000121
p271
S'PRJNA201366'
p272
sVNZ_KB454099
p273
S'PRJNA183744'
p274
sVNZ_KB454253
p275
S'183741'
p276
sVNZ_KI601383
p277
S'PRJNA230570'
p278
sVNZ_AWMR01000031
p279
S'PRJNA224116'
p280
sVNZ_DS999327
p281
S'54741'
p282
sVNZ_AWIV01000108
p283
S'PRJNA224116'
p284
sVNZ_AWWL01000049
p285
S'PRJNA222908'
p286
sVNZ_JH636656
p287
S'PRJNA200024'
p288
sVNZ_AWWL01000044
p289
S'PRJNA222908'
p290
sVNZ_AWWL01000046
p291
S'PRJNA222908'
p292
sVNZ_AYNM01000072
p293
S'PRJNA224116'
p294
sVNZ_AYNM01000075
p295
S'PRJNA224116'
p296
sVNZ_AJYV01000155
p297
S'PRJNA200164'
p298
sVNZ_AMWW01000025
p299
S'PRJNA201366'
p300
sVNZ_JH636619
p301
S'PRJNA200020'
p302
sVNZ_KB453869
p303
S'183747'
p304
sVNZ_DS179719
p305
S'54329'
p306
sVNZ_AMWF01000120
p307
S'PRJNA201360'
p308
sVNZ_KB453860
p309
S'183747'
p310
sVNZ_DS179714
p311
S'54329'
p312
sVNZ_AHTI01000186
p313
S'PRJNA200006'
p314
sVNZ_KI912389
p315
S'PRJNA224116'
p316
sVNZ_JH636615
p317
S'PRJNA200020'
p318
sVNZ_AHGM01000038
p319
S'PRJNA190314'
p320
sVNZ_AWMW01000053
p321
S'PRJNA224116'
p322
sVNZ_AWKK01000148
p323
S'PRJNA224116'
p324
sVNZ_AWKJ01000147
p325
S'PRJNA224116'
p326
sVNZ_AWMR01000105
p327
S'PRJNA224116'
p328
sVNZ_AWJU01000343
p329
S'PRJNA224116'
p330
sVNZ_AWLY01000009
p331
S'PRJNA224116'
p332
sVNZ_AJZP01000014
p333
S'PRJNA200183'
p334
sVNZ_JH976025
p335
S'181741'
p336
sVNZ_AWHM01000073
p337
S'PRJNA224116'
p338
sVNZ_DS177973
p339
S'54589'
p340
sVNZ_JH941248
p341
S'181807'
p342
sVNZ_JH941247
p343
S'181807'
p344
sVNZ_AWLL01000254
p345
S'PRJNA224116'
p346
sVNZ_AWLO01000260
p347
S'PRJNA224116'
p348
sVNZ_AJZH01000121
p349
S'PRJNA200175'
p350
sVNZ_AWJX01000238
p351
S'PRJNA224116'
p352
sVNZ_AJYV01000067
p353
S'PRJNA200164'
p354
sVNZ_AWHI01000033
p355
S'PRJNA224116'
p356
sVNZ_AWHI01000034
p357
S'PRJNA224116'
p358
sVNZ_KB663341
p359
S'195216'
p360
sVNZ_JH942819
p361
S'181802'
p362
sVNZ_JH377748
p363
S'181605'
p364
sVNZ_JH377749
p365
S'181605'
p366
sVNZ_DS990139
p367
S'54325'
p368
sVNZ_DS990138
p369
S'54325'
p370
sVNZ_JH976116
p371
S'181743'
p372
sVNZ_DS990137
p373
S'54325'
p374
sVNZ_DS990136
p375
S'54325'
p376
sVNZ_AJZL01000194
p377
S'PRJNA200179'
p378
sVNZ_ANNM01000180
p379
S'PRJNA201368'
p380
sVNZ_AWND01000032
p381
S'PRJNA224116'
p382
sVNZ_AJZN01000248
p383
S'PRJNA200181'
p384
sVNZ_AYNN01000014
p385
S'PRJNA224116'
p386
sVNZ_DS180305
p387
S'54593'
p388
sVNZ_GL988622
p389
S'181559'
p390
sVNZ_AWMH01000102
p391
S'PRJNA224116'
p392
sVNZ_GL988621
p393
S'181559'
p394
sVNZ_AEZA01000180
p395
S'PRJNA200507'
p396
sVNZ_AXNN01000074
p397
S'PRJNA224116'
p398
sVNZ_JH377526
p399
S'181608'
p400
sVNZ_AWJN01000111
p401
S'PRJNA224116'
p402
sVNZ_BAVG01000017
p403
S'PRJNA224116'
p404
sVNZ_BAVG01000011
p405
S'PRJNA224116'
p406
sVNZ_AHGQ01000002
p407
S'PRJNA190314'
p408
sVNZ_AWJE01000555
p409
S'PRJNA224116'
p410
sVNZ_AHGH01000007
p411
S'PRJNA190314'
p412
sVNZ_AWKB01000228
p413
S'PRJNA224116'
p414
sVNZ_AXNR01000023
p415
S'PRJNA224116'
p416
sVNZ_AWLH01000214
p417
S'PRJNA224116'
p418
sVNZ_AXNR01000028
p419
S'PRJNA224116'
p420
sVNZ_AWHP01000302
p421
S'PRJNA224116'
p422
sVNC_021847
p423
S'PRJNA212977'
p424
sVNZ_AICZ01000040
p425
S'PRJNA200019'
p426
sVNZ_AWLU01000180
p427
S'PRJNA224116'
p428
sVNZ_AWMM01000093
p429
S'PRJNA224116'
p430
sVNZ_AHGK01000017
p431
S'PRJNA190314'
p432
sVNZ_AHGK01000015
p433
S'PRJNA190314'
p434
sVNZ_AJYL01000130
p435
S'PRJNA200154'
p436
sVNZ_GL988242
p437
S'181557'
p438
sVNZ_GL988712
p439
S'181560'
p440
sVNZ_AHGK01000019
p441
S'PRJNA190314'
p442
sVNZ_AHGK01000018
p443
S'PRJNA190314'
p444
sVNZ_GL988228
p445
S'181557'
p446
sVNZ_AHGO01000012
p447
S'PRJNA190314'
p448
sVNZ_AWKS01000065
p449
S'PRJNA224116'
p450
sVNZ_JH966629
p451
S'181723'
p452
sVNZ_AWIO01000003
p453
S'PRJNA224116'
p454
sVNZ_AIDK01000065
p455
S'PRJNA200029'
p456
sVNZ_JH377412
p457
S'181607'
p458
sVNZ_AMWS01000100
p459
S'PRJNA201362'
p460
sVNZ_JH967866
p461
S'181732'
p462
sVNZ_JPKV01000008
p463
S'PRJNA224116'
p464
sVNZ_JH377414
p465
S'181607'
p466
sVNZ_AWIA01000123
p467
S'PRJNA224116'
p468
sVNZ_JPKV01000007
p469
S'PRJNA224116'
p470
sVNZ_JH967869
p471
S'181732'
p472
sVNZ_JPKV01000002
p473
S'PRJNA224116'
p474
sVNZ_AMWR01000008
p475
S'PRJNA201361'
p476
sVNZ_AWIE01000100
p477
S'PRJNA224116'
p478
sVNZ_GL989445
p479
S'181564'
p480
sVNZ_KB662655
p481
S'195208'
p482
sVNZ_GL988955
p483
S'181561'
p484
sVNZ_AWNA01000055
p485
S'PRJNA224116'
p486
sVNZ_CH724170
p487
S'54239'
p488
sVNZ_AMWS01000097
p489
S'PRJNA201362'
p490
sVNZ_AMWS01000094
p491
S'PRJNA201362'
p492
sVNZ_GL988406
p493
S'181558'
p494
sVNZ_GL988407
p495
S'181558'
p496
sVNZ_AGIE01000090
p497
S'PRJNA167582'
p498
sVNZ_GL988408
p499
S'181558'
p500
sVNZ_DS177968
p501
S'54589'
p502
sVNZ_JH941108
p503
S'181796'
p504
sVNZ_AJYT01000079
p505
S'PRJNA200162'
p506
sVNZ_AJYT01000077
p507
S'PRJNA200162'
p508
sVNZ_CH724175
p509
S'54239'
p510
sVNZ_JH967914
p511
S'181732'
p512
sVNZ_AJYT01000070
p513
S'PRJNA200162'
p514
sVNZ_JH967917
p515
S'181732'
p516
sVNZ_AHFX01000050
p517
S'PRJNA190314'
p518
sVNZ_AWKT01000124
p519
S'PRJNA224116'
p520
sVNZ_JH967648
p521
S'181730'
p522
sVNZ_AWLQ01000010
p523
S'PRJNA224116'
p524
sVNZ_AXNS01000046
p525
S'PRJNA224116'
p526
sVNZ_AWNA01000108
p527
S'PRJNA224116'
p528
sVNZ_AXNS01000040
p529
S'PRJNA224116'
p530
sVNZ_AEZB01000014
p531
S'PRJNA200508'
p532
sVNZ_BAVH01000012
p533
S'PRJNA224116'
p534
sVNZ_AWHG01000069
p535
S'PRJNA224116'
p536
sVNZ_AWHL01000070
p537
S'PRJNA224116'
p538
sVNZ_DS265254
p539
S'54487'
p540
sVNZ_AWHT01000003
p541
S'PRJNA224116'
p542
sVNZ_DS265251
p543
S'54487'
p544
sVNZ_DS265252
p545
S'54487'
p546
sVNZ_DS267833
p547
S'54337'
p548
sVNZ_DS265259
p549
S'54487'
p550
sVNZ_JH973980
p551
S'181737'
p552
sVNZ_JH973981
p553
S'181737'
p554
sVNZ_AWKT01000011
p555
S'PRJNA224116'
p556
sVNZ_JH966733
p557
S'181724'
p558
sVNZ_AIDN01000112
p559
S'PRJNA200032'
p560
sVNZ_JH966731
p561
S'181724'
p562
sVNZ_JH966736
p563
S'181724'
p564
sVNZ_JH966734
p565
S'181724'
p566
sVNZ_JH967008
p567
S'181725'
p568
sVNZ_JH967009
p569
S'181725'
p570
sVNZ_AWJQ01000006
p571
S'PRJNA224116'
p572
sVNZ_DS178015
p573
S'54589'
p574
sVNZ_JH967007
p575
S'181725'
p576
sVNZ_AJYV01000206
p577
S'PRJNA200164'
p578
sVNZ_AWNF01000041
p579
S'PRJNA224116'
p580
sVNZ_BAOH01000032
p581
S'PRJNA203327'
p582
sVNZ_AWHW01000439
p583
S'PRJNA224116'
p584
sVNZ_KB662452
p585
S'195224'
p586
sVNZ_AHGL01000070
p587
S'PRJNA190314'
p588
sVNZ_AIDO01000024
p589
S'PRJNA200033'
p590
sVNZ_JH942771
p591
S'181802'
p592
sVNZ_JH942772
p593
S'181802'
p594
sVNZ_JH942778
p595
S'181802'
p596
sVNZ_AHGJ01000012
p597
S'PRJNA190314'
p598
sVNZ_AHGJ01000010
p599
S'PRJNA190314'
p600
sVNZ_AHGJ01000017
p601
S'PRJNA190314'
p602
sVNZ_JH942554
p603
S'181791'
p604
sVNZ_AHGJ01000018
p605
S'PRJNA190314'
p606
sVNZ_JH942550
p607
S'181791'
p608
sVNZ_JH942553
p609
S'181791'
p610
sVNZ_AELI01000046
p611
S'PRJNA190213'
p612
sVNZ_AMWF01000008
p613
S'PRJNA201360'
p614
sVNZ_AELI01000043
p615
S'PRJNA190213'
p616
sVNZ_AELI01000040
p617
S'PRJNA190213'
p618
sVNZ_AWKH01000130
p619
S'PRJNA224116'
p620
sVNZ_DF093597
p621
S'66161'
p622
sVNZ_AWII01000014
p623
S'PRJNA224116'
p624
sVNZ_AMQR01000003
p625
S'PRJNA199797'
p626
sVNZ_AMWW01000159
p627
S'PRJNA201366'
p628
sVNZ_AWKJ01000206
p629
S'PRJNA224116'
p630
sVNZ_ANHS01000001
p631
S'PRJNA198283'
p632
sVNZ_KI530560
p633
S'PRJNA224116'
p634
sVNZ_AWKJ01000022
p635
S'PRJNA224116'
p636
sVNZ_AYOM01000235
p637
S'PRJNA224116'
p638
sVNZ_AJYR01000036
p639
S'PRJNA200160'
p640
sVNZ_DS999330
p641
S'54741'
p642
sVNZ_KB454064
p643
S'183745'
p644
sVNZ_KB454065
p645
S'183745'
p646
sVNZ_JH942248
p647
S'181801'
p648
sVNZ_JH636667
p649
S'PRJNA200025'
p650
sVNZ_AWJB01000026
p651
S'PRJNA224116'
p652
sVNZ_AJZK01000069
p653
S'PRJNA200178'
p654
sVNZ_AWIJ01000018
p655
S'PRJNA224116'
p656
sVNZ_AHFY01000072
p657
S'PRJNA190314'
p658
sVNZ_AXNL01000483
p659
S'PRJNA224116'
p660
sVNZ_AWLE01000197
p661
S'PRJNA224116'
p662
sVNZ_AYNM01000068
p663
S'PRJNA224116'
p664
sVNZ_KB453878
p665
S'183747'
p666
sVNZ_AWNE01000236
p667
S'PRJNA224116'
p668
sVNZ_KB453876
p669
S'183747'
p670
sVNZ_DS179724
p671
S'54329'
p672
sVNZ_KB661707
p673
S'195215'
p674
sVNZ_AYOM01000211
p675
S'PRJNA224116'
p676
sVNZ_JH724777
p677
S'181793'
p678
sVNZ_JH942397
p679
S'181803'
p680
sVNZ_JH942396
p681
S'181803'
p682
sVNZ_AMQR01000171
p683
S'PRJNA199797'
p684
sVNZ_KI912390
p685
S'PRJNA224116'
p686
sVNZ_KB454401
p687
S'183743'
p688
sVNZ_JH377911
p689
S'181603'
p690
sVNZ_AYOM01000076
p691
S'PRJNA224116'
p692
sVNZ_AWJC01000095
p693
S'PRJNA224116'
p694
sVNZ_AYOM01000075
p695
S'PRJNA224116'
p696
sVNZ_AWMW01000027
p697
S'PRJNA224116'
p698
sVNZ_AWMR01000119
p699
S'PRJNA224116'
p700
sVNZ_AWMR01000116
p701
S'PRJNA224116'
p702
sVNZ_AXNM01000052
p703
S'PRJNA224116'
p704
sVNZ_KB662734
p705
S'195208'
p706
sVNZ_AMBT01000043
p707
S'PRJNA190522'
p708
sVNZ_KI601374
p709
S'PRJNA230570'
p710
sVNZ_AWMK01000019
p711
S'PRJNA224116'
p712
sVNZ_JH941905
p713
S'181799'
p714
sVNZ_JH941904
p715
S'181799'
p716
sVNZ_AWIG01000037
p717
S'PRJNA224116'
p718
sVNZ_JH941836
p719
S'181805'
p720
sVNZ_KB663284
p721
S'195218'
p722
sVNZ_AWIT01000160
p723
S'PRJNA224116'
p724
sVNZ_AHGE01000019
p725
S'PRJNA190314'
p726
sVNZ_JH724955
p727
S'181798'
p728
sVNZ_JH724954
p729
S'181798'
p730
sVNZ_AHGE01000014
p731
S'PRJNA190314'
p732
sVNZ_AHGE01000017
p733
S'PRJNA190314'
p734
sVNZ_JH724635
p735
S'181806'
p736
sVNZ_AHGE01000011
p737
S'PRJNA190314'
p738
sVNZ_AWWA01000058
p739
S'PRJNA224116'
p740
sVNZ_AWWA01000059
p741
S'PRJNA224116'
p742
sVNZ_AMWU01000100
p743
S'PRJNA201364'
p744
sVNZ_AWHI01000021
p745
S'PRJNA224116'
p746
sVNZ_AYOM01000142
p747
S'PRJNA224116'
p748
sVNZ_AWHS01000012
p749
S'PRJNA224116'
p750
sVNZ_AFSV01000023
p751
S'PRJNA190225'
p752
sVNZ_JH377889
p753
S'181603'
p754
sVNZ_AWKF01000325
p755
S'PRJNA224116'
p756
sVNZ_GL988898
p757
S'181561'
p758
sVNZ_JH377733
p759
S'181605'
p760
sVNZ_JH377732
p761
S'181605'
p762
sVNZ_JH377887
p763
S'181603'
p764
sVNZ_KB453727
p765
S'183749'
p766
sVNZ_KB453724
p767
S'183749'
p768
sVNZ_KB453725
p769
S'183749'
p770
sVNZ_KB453722
p771
S'183749'
p772
sVNZ_KB453723
p773
S'183749'
p774
sVNZ_AWIT01000013
p775
S'PRJNA224116'
p776
sVNZ_GL988879
p777
S'181561'
p778
sVNZ_GL988878
p779
S'181561'
p780
sVNZ_AWLH01000444
p781
S'PRJNA224116'
p782
sVNZ_JH966218
p783
S'181722'
p784
sVNZ_JH942764
p785
S'181802'
p786
sVNZ_KB662864
p787
S'195222'
p788
sVNZ_AFAJ01000009
p789
S'PRJNA73893'
p790
sVNZ_AWKG01000143
p791
S'PRJNA224116'
p792
sVNZ_AWKG01000140
p793
S'PRJNA224116'
p794
sVNZ_ANBX01000009
p795
S'PRJNA199863'
p796
sVNZ_KB662536
p797
S'195226'
p798
sVNZ_AWML01000114
p799
S'PRJNA224116'
p800
sVNZ_KB662538
p801
S'195226'
p802
sVNZ_AFAJ01000002
p803
S'PRJNA73893'
p804
sVNZ_AWJK01000592
p805
S'PRJNA224116'
p806
sVNZ_AWHK01000099
p807
S'PRJNA224116'
p808
sVNZ_JH377642
p809
S'181606'
p810
sVNZ_JH377641
p811
S'181606'
p812
sVNZ_JH377640
p813
S'181606'
p814
sVNZ_AWLS01000500
p815
S'PRJNA224116'
p816
sVNZ_AWMY01000022
p817
S'PRJNA224116'
p818
sVNZ_AWIY01000149
p819
S'PRJNA224116'
p820
sVNZ_AMWU01000160
p821
S'PRJNA201364'
p822
sVNZ_AWLU01000194
p823
S'PRJNA224116'
p824
sVNZ_AHGK01000004
p825
S'PRJNA190314'
p826
sVNZ_ATEV02000015
p827
S'PRJNA224116'
p828
sVNZ_AHGK01000007
p829
S'PRJNA190314'
p830
sVNZ_AHGK01000002
p831
S'PRJNA190314'
p832
sVNZ_AHGK01000003
p833
S'PRJNA190314'
p834
sVNZ_AHGK01000009
p835
S'PRJNA190314'
p836
sVNZ_AJYZ01000004
p837
S'PRJNA200168'
p838
sVNZ_AWIW01000021
p839
S'PRJNA224116'
p840
sVNZ_AYNN01000028
p841
S'PRJNA224116'
p842
sVNZ_AWJS01000478
p843
S'PRJNA224116'
p844
sVNZ_AIDH01000034
p845
S'PRJNA175805'
p846
sVNZ_AIDI01000027
p847
S'PRJNA200027'
p848
sVNZ_JH377399
p849
S'181607'
p850
sVNZ_JH377398
p851
S'181607'
p852
sVNZ_KB662880
p853
S'195222'
p854
sVNZ_KB662883
p855
S'195222'
p856
sVNZ_KB662882
p857
S'195222'
p858
sVNZ_KB662661
p859
S'195208'
p860
sVNZ_KB662660
p861
S'195208'
p862
sVNZ_KB662662
p863
S'195208'
p864
sVNZ_AMWU01000017
p865
S'PRJNA201364'
p866
sVNZ_AMWU01000011
p867
S'PRJNA201364'
p868
sVNZ_JH720473
p869
S'PRJNA200275'
p870
sVNZ_KB662391
p871
S'195224'
p872
sVNZ_AMWU01000019
p873
S'PRJNA201364'
p874
sVNZ_JH942016
p875
S'181795'
p876
sVNZ_KI549235
p877
S'PRJNA230256'
p878
sVNZ_AWLN01000237
p879
S'PRJNA224116'
p880
sVNZ_KB661845
p881
S'195228'
p882
sVNZ_KB661847
p883
S'195228'
p884
sVNZ_KB661848
p885
S'195228'
p886
sVNZ_AHFY01000041
p887
S'PRJNA190314'
p888
sVNZ_JH967920
p889
S'181732'
p890
sVNZ_AJYW01000233
p891
S'PRJNA200165'
p892
sVNZ_AJYJ01000099
p893
S'PRJNA200152'
p894
sVNZ_AIDP01000054
p895
S'PRJNA200034'
p896
sVNZ_AIDL01000083
p897
S'PRJNA200030'
p898
sVNZ_AGIE01000041
p899
S'PRJNA167582'
p900
sVNZ_AMWR01000106
p901
S'PRJNA201361'
p902
sVNZ_BAVH01000009
p903
S'PRJNA224116'
p904
sVNZ_GL989294
p905
S'181563'
p906
sVNZ_DS265242
p907
S'54487'
p908
sVNZ_AEZB01000022
p909
S'PRJNA200508'
p910
sVNZ_AHGC01000088
p911
S'PRJNA190314'
p912
sVNZ_KB661281
p913
S'195205'
p914
sVNZ_JH973973
p915
S'181737'
p916
sVNZ_JH973974
p917
S'181737'
p918
sVNZ_JH967101
p919
S'181725'
p920
sVNZ_AIDN01000109
p921
S'PRJNA200032'
p922
sVNZ_AELI01000038
p923
S'PRJNA190213'
p924
sVNZ_AWIC01000042
p925
S'PRJNA224116'
p926
sVNZ_DS178026
p927
S'54589'
p928
sVNZ_AWLI01000194
p929
S'PRJNA224116'
p930
sVNZ_AJYU01000081
p931
S'PRJNA200163'
p932
sVNZ_AWLV01000021
p933
S'PRJNA224116'
p934
sVNZ_AEZC01000082
p935
S'PRJNA80489'
p936
sVNZ_KB662865
p937
S'195222'
p938
sVNZ_JH942765
p939
S'181802'
p940
sVNZ_AWKE01000012
p941
S'PRJNA224116'
p942
sVNZ_JH636872
p943
S'PRJNA200036'
p944
sVNZ_JH636876
p945
S'PRJNA200036'
p946
sVNZ_AWJB01000103
p947
S'PRJNA224116'
p948
sVNZ_AJZJ01000134
p949
S'PRJNA200177'
p950
sVNZ_JH966986
p951
S'181725'
p952
sVNZ_AIDB01000019
p953
S'PRJNA200021'
p954
sVNZ_AWHT01000011
p955
S'PRJNA224116'
p956
sVNZ_JH966983
p957
S'181725'
p958
sVNZ_AWKV01000068
p959
S'PRJNA224116'
p960
sVNZ_JH967457
p961
S'181728'
p962
sVNZ_AELJ01000089
p963
S'PRJNA190214'
p964
sVNZ_AHGM01000075
p965
S'PRJNA190314'
p966
sVNZ_AWKH01000104
p967
S'PRJNA224116'
p968
sVNZ_AWLI01000046
p969
S'PRJNA224116'
p970
sVNZ_AWLG01000107
p971
S'PRJNA224116'
p972
sVNZ_AWMB01000082
p973
S'PRJNA224116'
p974
sVNZ_AWMI01000013
p975
S'PRJNA224116'
p976
sVNZ_JH967583
p977
S'181729'
p978
sVNZ_KB454278
p979
S'183742'
p980
sVNZ_AHGQ01000037
p981
S'PRJNA190314'
p982
sVNZ_ANBW01000385
p983
S'PRJNA199862'
p984
sVNZ_AIDG01000089
p985
S'PRJNA200026'
p986
sVNZ_AJYD01000039
p987
S'PRJNA200146'
p988
sVNZ_AWKD01000008
p989
S'PRJNA224116'
p990
sVNZ_AWWL01000060
p991
S'PRJNA222908'
p992
sVNZ_AHGQ01000033
p993
S'PRJNA190314'
p994
sVNZ_AJZK01000077
p995
S'PRJNA200178'
p996
sVNZ_AWWL01000068
p997
S'PRJNA222908'
p998
sVNZ_KB453880
p999
S'183747'
p1000
sVNZ_DS179736
p1001
S'54329'
p1002
sVNZ_AWLC01000116
p1003
S'PRJNA224116'
p1004
sVNZ_AHGG01000069
p1005
S'PRJNA190314'
p1006
sVNZ_AHGG01000066
p1007
S'PRJNA190314'
p1008
sVNZ_KB454186
p1009
S'183741'
p1010
sVNZ_JH941866
p1011
S'181805'
p1012
sVNZ_KB661713
p1013
S'195215'
p1014
sVNZ_AHGG01000063
p1015
S'PRJNA190314'
p1016
sVNZ_AHGG01000060
p1017
S'PRJNA190314'
p1018
sVNZ_AJYR01000135
p1019
S'PRJNA200160'
p1020
sVNZ_AJYR01000134
p1021
S'PRJNA200160'
p1022
sVNZ_JPKU01000015
p1023
S'PRJNA224116'
p1024
sVNZ_AWKE01000162
p1025
S'PRJNA224116'
p1026
sVNZ_AJYU01000065
p1027
S'PRJNA200163'
p1028
sVNZ_AWMI01000408
p1029
S'PRJNA224116'
p1030
sVNZ_JPKU01000010
p1031
S'PRJNA224116'
p1032
sVNZ_AJYS01000186
p1033
S'PRJNA200161'
p1034
sVNZ_AWIL01000061
p1035
S'PRJNA224116'
p1036
sVNZ_AJYI01000048
p1037
S'PRJNA200151'
p1038
sVNZ_AWKD01000133
p1039
S'PRJNA224116'
p1040
sVNZ_AYNM01000124
p1041
S'PRJNA224116'
p1042
sVNZ_KB454279
p1043
S'183742'
p1044
sVNZ_AWLF01000016
p1045
S'PRJNA224116'
p1046
sVNZ_ATWU01000053
p1047
S'PRJNA224116'
p1048
sVNZ_JH967582
p1049
S'181729'
p1050
sVNZ_JH941910
p1051
S'181799'
p1052
sVNZ_JH724619
p1053
S'181806'
p1054
sVNZ_JH941265
p1055
S'181807'
p1056
sVNZ_AWMW01000100
p1057
S'PRJNA224116'
p1058
sVNZ_AFSV01000009
p1059
S'PRJNA190225'
p1060
sVNZ_JH974182
p1061
S'181740'
p1062
sVNZ_AFSV01000006
p1063
S'PRJNA190225'
p1064
sVNZ_JOKT01000043
p1065
S'PRJNA224116'
p1066
sVNZ_AWMP01000073
p1067
S'PRJNA224116'
p1068
sVNZ_JH724615
p1069
S'181806'
p1070
sVNZ_AWJZ01000128
p1071
S'PRJNA224116'
p1072
sVNZ_AKGH01000001
p1073
S'190379'
p1074
sVNZ_AKGH01000002
p1075
S'190379'
p1076
sVNZ_AHGE01000002
p1077
S'PRJNA190314'
p1078
sVNZ_JH966755
p1079
S'181724'
p1080
sVNZ_AHGE01000001
p1081
S'PRJNA190314'
p1082
sVNZ_JH941734
p1083
S'181794'
p1084
sVNZ_JH941735
p1085
S'181794'
p1086
sVNZ_JH973571
p1087
S'181738'
p1088
sVNZ_AHGE01000005
p1089
S'PRJNA190314'
p1090
sVNZ_AWKK01000056
p1091
S'PRJNA224116'
p1092
sVNZ_AJZO01000253
p1093
S'PRJNA200182'
p1094
sVNZ_JH966757
p1095
S'181724'
p1096
sVNZ_AJZP01000102
p1097
S'PRJNA200183'
p1098
sVNZ_BAVK01000037
p1099
S'PRJNA224116'
p1100
sVNZ_GL988886
p1101
S'181561'
p1102
sVNZ_AWJA01000034
p1103
S'PRJNA224116'
p1104
sVNZ_AWWY01000155
p1105
S'PRJNA222909'
p1106
sVNZ_AOCL01000016
p1107
S'PRJNA229950'
p1108
sVNZ_JH377895
p1109
S'181603'
p1110
sVNZ_BAVF01000032
p1111
S'PRJNA224116'
p1112
sVNZ_GL988888
p1113
S'181561'
p1114
sVNZ_KB663431
p1115
S'195214'
p1116
sVNZ_AWIC01000132
p1117
S'PRJNA224116'
p1118
sVNZ_KB663436
p1119
S'195214'
p1120
sVNZ_KB663434
p1121
S'195214'
p1122
sVNZ_KB663385
p1123
S'195216'
p1124
sVNZ_KB663381
p1125
S'195216'
p1126
sVNZ_KB663380
p1127
S'195216'
p1128
sVNZ_KB663382
p1129
S'195216'
p1130
sVNZ_JH966223
p1131
S'181722'
p1132
sVNZ_AWLF01000163
p1133
S'PRJNA224116'
p1134
sVNZ_JH966227
p1135
S'181722'
p1136
sVNZ_AQOD01000063
p1137
S'PRJNA224116'
p1138
sVNZ_JH966228
p1139
S'181722'
p1140
sVNZ_AWMQ01000124
p1141
S'PRJNA224116'
p1142
sVNZ_BAVI01000011
p1143
S'PRJNA224116'
p1144
sVNZ_AWKF01000022
p1145
S'PRJNA224116'
p1146
sVNZ_AWMM01000230
p1147
S'PRJNA224116'
p1148
sVNZ_AHGQ01000062
p1149
S'PRJNA190314'
p1150
sVNZ_AHGQ01000063
p1151
S'PRJNA190314'
p1152
sVNZ_AWMT01000040
p1153
S'PRJNA224116'
p1154
sVNZ_AICZ01000062
p1155
S'PRJNA200019'
p1156
sVNZ_GL989609
p1157
S'182021'
p1158
sVNZ_GL989608
p1159
S'182021'
p1160
sVNZ_GL989607
p1161
S'182021'
p1162
sVNZ_AWJN01000484
p1163
S'PRJNA224116'
p1164
sVNZ_ATEV02000004
p1165
S'PRJNA224116'
p1166
sVNZ_ATEV02000005
p1167
S'PRJNA224116'
p1168
sVNZ_ATEV02000007
p1169
S'PRJNA224116'
p1170
sVNZ_ATEV02000001
p1171
S'PRJNA224116'
p1172
sVNZ_ATEV02000003
p1173
S'PRJNA224116'
p1174
sVNZ_ATEV02000009
p1175
S'PRJNA224116'
p1176
sVNZ_AWIO01000060
p1177
S'PRJNA224116'
p1178
sVNZ_CH902591
p1179
S'54241'
p1180
sVNZ_AWIA01000103
p1181
S'PRJNA224116'
p1182
sVNZ_AWMC01000021
p1183
S'PRJNA224116'
p1184
sVNZ_AWNB01000122
p1185
S'PRJNA224116'
p1186
sVNZ_AYNN01000036
p1187
S'PRJNA224116'
p1188
sVNZ_JH967889
p1189
S'181732'
p1190
sVNZ_AEZA01000012
p1191
S'PRJNA200507'
p1192
sVNZ_DS179731
p1193
S'54329'
p1194
sVNZ_AMWU01000025
p1195
S'PRJNA201364'
p1196
sVNZ_AWMU01000007
p1197
S'PRJNA224116'
p1198
sVNZ_KB453887
p1199
S'183746'
p1200
sVNZ_KB662389
p1201
S'195224'
p1202
sVNZ_GL988465
p1203
S'181559'
p1204
sVNZ_AMWV01000014
p1205
S'PRJNA201365'
p1206
sVNZ_AIDA01000051
p1207
S'PRJNA200020'
p1208
sVNZ_AMWV01000010
p1209
S'PRJNA201365'
p1210
sVNZ_AJYQ01000092
p1211
S'PRJNA200159'
p1212
sVNZ_DS179812
p1213
S'54329'
p1214
sVNZ_KI549226
p1215
S'PRJNA230256'
p1216
sVNZ_JH967933
p1217
S'181732'
p1218
sVNZ_JH967930
p1219
S'181732'
p1220
sVNZ_DS177987
p1221
S'54589'
p1222
sVNZ_JH967937
p1223
S'181732'
p1224
sVNZ_KB662706
p1225
S'195208'
p1226
sVNZ_KB662705
p1227
S'195208'
p1228
sVNZ_ANBW01000252
p1229
S'PRJNA199862'
p1230
sVNZ_AHGG01000065
p1231
S'PRJNA190314'
p1232
sVNZ_AWLU01000017
p1233
S'PRJNA224116'
p1234
sVNZ_KB454182
p1235
S'183741'
p1236
sVNZ_KB661271
p1237
S'195205'
p1238
sVNZ_AWJV01000013
p1239
S'PRJNA224116'
p1240
sVNZ_AWKC01000179
p1241
S'PRJNA224116'
p1242
sVNZ_AWJV01000026
p1243
S'PRJNA224116'
p1244
sVNZ_DS265237
p1245
S'54487'
p1246
sVNZ_KB661278
p1247
S'195205'
p1248
sVNZ_AWMI01000050
p1249
S'PRJNA224116'
p1250
sVNZ_AJZN01000466
p1251
S'PRJNA200181'
p1252
sVNZ_AWKU01000272
p1253
S'PRJNA224116'
p1254
sVNZ_AMWV01000123
p1255
S'PRJNA201365'
p1256
sVNZ_AWMQ01000009
p1257
S'PRJNA224116'
p1258
sVNZ_AMWV01000120
p1259
S'PRJNA201365'
p1260
sVNZ_AMWV01000127
p1261
S'PRJNA201365'
p1262
sVNZ_AWHN01000121
p1263
S'PRJNA224116'
p1264
sVNZ_AWMG01000156
p1265
S'PRJNA224116'
p1266
sVNZ_DS178037
p1267
S'54589'
p1268
sVNZ_AHGB01000080
p1269
S'PRJNA190314'
p1270
sVNZ_AWKP01000034
p1271
S'PRJNA224116'
p1272
sVNZ_AJYU01000104
p1273
S'PRJNA200163'
p1274
sVNZ_AWNC01000480
p1275
S'PRJNA224116'
p1276
sVNZ_AJYY01000189
p1277
S'PRJNA200167'
p1278
sVNZ_AWNF01000024
p1279
S'PRJNA224116'
p1280
sVNZ_BAOH01000050
p1281
S'PRJNA203327'
p1282
sVNZ_AWKO01000083
p1283
S'PRJNA224116'
p1284
sVNZ_AWIZ01000028
p1285
S'PRJNA224116'
p1286
sVNZ_AWHZ01000272
p1287
S'PRJNA224116'
p1288
sVNZ_JH724370
p1289
S'181797'
p1290
sVNZ_KB662870
p1291
S'195222'
p1292
sVNZ_JH973894
p1293
S'181737'
p1294
sVNZ_AWJT01000061
p1295
S'PRJNA224116'
p1296
sVNZ_JH973992
p1297
S'181737'
p1298
sVNZ_JH942533
p1299
S'181791'
p1300
sVNZ_JH942532
p1301
S'181791'
p1302
sVNZ_JH636842
p1303
S'PRJNA200034'
p1304
sVNZ_JH973995
p1305
S'181737'
p1306
sVNZ_AMWF01000020
p1307
S'PRJNA201360'
p1308
sVNZ_JH942538
p1309
S'181791'
p1310
sVNZ_AELI01000028
p1311
S'PRJNA190213'
p1312
sVNZ_AWJF01000549
p1313
S'PRJNA224116'
p1314
sVNZ_AWJQ01000116
p1315
S'PRJNA224116'
p1316
sVNC_014965
p1317
S'62243'
p1318
sVNZ_KB661126
p1319
S'195203'
p1320
sVNZ_KB661125
p1321
S'195203'
p1322
sVNZ_AELI01000027
p1323
S'PRJNA190213'
p1324
sVNZ_AHGM01000066
p1325
S'PRJNA190314'
p1326
sVNZ_KB661493
p1327
S'195206'
p1328
sVNZ_KB661492
p1329
S'195206'
p1330
sVNZ_KB661495
p1331
S'195206'
p1332
sVNZ_KB661494
p1333
S'195206'
p1334
sVNZ_JH942153
p1335
S'181801'
p1336
sVNZ_JPKT01000044
p1337
S'PRJNA224116'
p1338
sVNZ_JH967595
p1339
S'181729'
p1340
sVNZ_AKXW01000146
p1341
S'PRJNA199005'
p1342
sVNZ_JH636601
p1343
S'PRJNA200019'
p1344
sVNZ_AWKX01000063
p1345
S'PRJNA224116'
p1346
sVNZ_AMWW01000011
p1347
S'PRJNA201366'
p1348
sVNZ_AMWW01000017
p1349
S'PRJNA201366'
p1350
sVNZ_AMWW01000015
p1351
S'PRJNA201366'
p1352
sVNZ_AMWF01000115
p1353
S'PRJNA201360'
p1354
sVNZ_DS179747
p1355
S'54329'
p1356
sVNZ_AIDC01000227
p1357
S'PRJNA200022'
p1358
sVNZ_KB661729
p1359
S'195212'
p1360
sVNZ_DS267853
p1361
S'54337'
p1362
sVNZ_KB454195
p1363
S'183741'
p1364
sVNZ_GL988193
p1365
S'181557'
p1366
sVNZ_JH724755
p1367
S'181789'
p1368
sVNZ_AHGG01000016
p1369
S'PRJNA190314'
p1370
sVNZ_AJYR01000120
p1371
S'PRJNA200160'
p1372
sVNZ_JH724756
p1373
S'181789'
p1374
sVNZ_AWKE01000197
p1375
S'PRJNA224116'
p1376
sVNZ_AWHQ01000011
p1377
S'PRJNA224116'
p1378
sVNZ_JH724593
p1379
S'181806'
p1380
sVNZ_JH724592
p1381
S'181806'
p1382
sVNZ_BAVJ01000010
p1383
S'PRJNA224116'
p1384
sVNZ_AWHQ01000019
p1385
S'PRJNA224116'
p1386
sVNZ_AJYU01000056
p1387
S'PRJNA200163'
p1388
sVNZ_AWMA01000030
p1389
S'PRJNA224116'
p1390
sVNC_009456
p1391
S'PRJNA58425'
p1392
sVNZ_AWKD01000104
p1393
S'PRJNA224116'
p1394
sVNZ_AWIL01000054
p1395
S'PRJNA224116'
p1396
sVNZ_AWKD01000102
p1397
S'PRJNA224116'
p1398
sVNZ_AWLD01000236
p1399
S'PRJNA224116'
p1400
sVNZ_AWWY01000042
p1401
S'PRJNA222909'
p1402
sVNZ_AWHJ01000069
p1403
S'PRJNA224116'
p1404
sVNZ_AWHH01000074
p1405
S'PRJNA224116'
p1406
sVNZ_AWHH01000070
p1407
S'PRJNA224116'
p1408
sVNZ_AWWL01000120
p1409
S'PRJNA222908'
p1410
sVNZ_AWKW01000124
p1411
S'PRJNA224116'
p1412
sVNZ_AWKA01000119
p1413
S'PRJNA224116'
p1414
sVNZ_AWMF01000082
p1415
S'PRJNA224116'
p1416
sVNZ_JH941925
p1417
S'181799'
p1418
sVNZ_AXNM01000042
p1419
S'PRJNA224116'
p1420
sVNZ_JH941921
p1421
S'181799'
p1422
sVNZ_JH941923
p1423
S'181799'
p1424
sVNZ_AHGI01000002
p1425
S'PRJNA190314'
p1426
sVNC_006840
p1427
S'58163'
p1428
sVNZ_AFSV01000011
p1429
S'PRJNA190225'
p1430
sVNZ_JH724975
p1431
S'181798'
p1432
sVNZ_AWKR01000089
p1433
S'PRJNA224116'
p1434
sVNZ_AWIS01000021
p1435
S'PRJNA224116'
p1436
sVNZ_AWJJ01000656
p1437
S'PRJNA224116'
p1438
sVNZ_AWMV01000181
p1439
S'PRJNA224116'
p1440
sVNZ_JH973561
p1441
S'181738'
p1442
sVNZ_JH973563
p1443
S'181738'
p1444
sVNZ_AWLE01000008
p1445
S'PRJNA224116'
p1446
sVNZ_AJZE01000023
p1447
S'PRJNA200172'
p1448
sVNZ_AWJA01000024
p1449
S'PRJNA224116'
p1450
sVNZ_AWJA01000025
p1451
S'PRJNA224116'
p1452
sVNZ_JH377867
p1453
S'181604'
p1454
sVNZ_JH377866
p1455
S'181604'
p1456
sVNZ_JH377865
p1457
S'181604'
p1458
sVNZ_AOCL01000004
p1459
S'PRJNA229950'
p1460
sVNZ_BAVF01000025
p1461
S'PRJNA224116'
p1462
sVNZ_AYKI01000048
p1463
S'PRJNA224116'
p1464
sVNZ_AWND01000060
p1465
S'PRJNA224116'
p1466
sVNZ_AWKS01000072
p1467
S'PRJNA224116'
p1468
sVNZ_AWKK01000245
p1469
S'PRJNA224116'
p1470
sVNZ_AWKK01000241
p1471
S'PRJNA224116'
p1472
sVNZ_AXNN01000044
p1473
S'PRJNA224116'
p1474
sVNZ_JH966234
p1475
S'181722'
p1476
sVNZ_AWKY01000106
p1477
S'PRJNA224116'
p1478
sVNZ_JH966231
p1479
S'181722'
p1480
sVNZ_JH973418
p1481
S'181733'
p1482
sVNZ_JH973419
p1483
S'181733'
p1484
sVNZ_AWKH01000011
p1485
S'PRJNA224116'
p1486
sVNZ_AIDE01000056
p1487
S'PRJNA200024'
p1488
sVNZ_JH941266
p1489
S'181807'
p1490
sVNZ_JH941267
p1491
S'181807'
p1492
sVNZ_AHGQ01000056
p1493
S'PRJNA190314'
p1494
sVNZ_AJZL01000013
p1495
S'PRJNA200179'
p1496
sVNZ_AJZO01000189
p1497
S'PRJNA200182'
p1498
sVNZ_KB662756
p1499
S'195223'
p1500
sVNZ_AWJW01000116
p1501
S'PRJNA224116'
p1502
sVNZ_AWJE01000635
p1503
S'PRJNA224116'
p1504
sVNZ_AWLP01000215
p1505
S'PRJNA224116'
p1506
sVNZ_GL989612
p1507
S'182021'
p1508
sVNZ_AEQS01000101
p1509
S'PRJNA200502'
p1510
sVNZ_AWJX01000005
p1511
S'PRJNA224116'
p1512
sVNZ_AYNL01000176
p1513
S'PRJNA224116'
p1514
sVNZ_JH377441
p1515
S'181607'
p1516
sVNZ_AFSV01000003
p1517
S'PRJNA190225'
p1518
sVNZ_JH377442
p1519
S'181607'
p1520
sVNZ_AJZO01000083
p1521
S'PRJNA200182'
p1522
sVNZ_AWMC01000032
p1523
S'PRJNA224116'
p1524
sVNZ_AFSV01000002
p1525
S'PRJNA190225'
p1526
sVNZ_AWIL01000025
p1527
S'PRJNA224116'
p1528
sVNZ_AWHK01000189
p1529
S'PRJNA224116'
p1530
sVNZ_KB662607
p1531
S'195227'
p1532
sVNZ_KB662606
p1533
S'195227'
p1534
sVNZ_KB662605
p1535
S'195227'
p1536
sVNZ_AEZA01000009
p1537
S'PRJNA200507'
p1538
sVNZ_AQOE01000037
p1539
S'PRJNA224116'
p1540
sVNZ_AMWU01000030
p1541
S'PRJNA201364'
p1542
sVNZ_GL988459
p1543
S'181558'
p1544
sVNZ_AWIY01000053
p1545
S'PRJNA224116'
p1546
sVNZ_GL988323
p1547
S'181558'
p1548
sVNZ_AWLX01000102
p1549
S'PRJNA224116'
p1550
sVNZ_KB661868
p1551
S'195228'
p1552
sVNZ_KB661860
p1553
S'195228'
p1554
sVNZ_AJYO01000040
p1555
S'PRJNA200157'
p1556
sVNZ_KB661867
p1557
S'195228'
p1558
sVNZ_KB661865
p1559
S'195228'
p1560
sVNZ_AJYT01000027
p1561
S'PRJNA200162'
p1562
sVNZ_AWIE01000242
p1563
S'PRJNA224116'
p1564
sVNZ_AWNB01000062
p1565
S'PRJNA224116'
p1566
sVNZ_AMWR01000163
p1567
S'PRJNA201361'
p1568
sVNZ_AMWR01000161
p1569
S'PRJNA201361'
p1570
sVNZ_AWHG01000032
p1571
S'PRJNA224116'
p1572
sVNZ_AEZC01000178
p1573
S'PRJNA80489'
p1574
sVNZ_AMWR01000168
p1575
S'PRJNA201361'
p1576
sVNZ_AHGE01000007
p1577
S'PRJNA190314'
p1578
sVNZ_BAVH01000020
p1579
S'PRJNA224116'
p1580
sVNZ_DS265229
p1581
S'54487'
p1582
sVNZ_DS265224
p1583
S'54487'
p1584
sVNZ_DS265227
p1585
S'54487'
p1586
sVNZ_KB662285
p1587
S'195230'
p1588
sVNZ_AWIO01000265
p1589
S'PRJNA224116'
p1590
sVNZ_AWKT01000029
p1591
S'PRJNA224116'
p1592
sVNZ_GL988525
p1593
S'181559'
p1594
sVNZ_AWMT01000094
p1595
S'PRJNA224116'
p1596
sVNZ_GL988523
p1597
S'181559'
p1598
sVNZ_AJFN02000007
p1599
S'PRJNA190359'
p1600
sVNZ_JH966707
p1601
S'181723'
p1602
sVNZ_JH966704
p1603
S'181723'
p1604
sVNZ_AWMQ01000013
p1605
S'PRJNA224116'
p1606
sVNZ_AWKQ01000529
p1607
S'PRJNA224116'
p1608
sVNZ_AWNF01000038
p1609
S'PRJNA224116'
p1610
sVNZ_AWIP01000230
p1611
S'PRJNA224116'
p1612
sVNZ_JH967721
p1613
S'181730'
p1614
sVNZ_JH967720
p1615
S'PRJNA63981'
p1616
sVNZ_JH967727
p1617
S'181730'
p1618
sVNZ_AXNK01000054
p1619
S'PRJNA224116'
p1620
sVNZ_AHGL01000025
p1621
S'PRJNA190314'
p1622
sVNZ_AJZP01000235
p1623
S'PRJNA200183'
p1624
sVNZ_AJZO01000229
p1625
S'PRJNA200182'
p1626
sVNZ_AWLK01000183
p1627
S'PRJNA224116'
p1628
sVNZ_JH724362
p1629
S'181797'
p1630
sVNZ_JH724364
p1631
S'181797'
p1632
sVNZ_KB662848
p1633
S'195222'
p1634
sVNZ_KB662847
p1635
S'195222'
p1636
sVNZ_AIDP01000073
p1637
S'PRJNA200034'
p1638
sVNZ_AIDN01000014
p1639
S'PRJNA200032'
p1640
sVNC_022543
p1641
S'PRJNA222819'
p1642
sVNZ_JH967127
p1643
S'181725'
p1644
sVNZ_AIDC01000106
p1645
S'PRJNA200022'
p1646
sVNZ_JH967120
p1647
S'181725'
p1648
sVNZ_DS178190
p1649
S'54587'
p1650
sVNZ_AMWW01000160
p1651
S'PRJNA201366'
p1652
sVNZ_AWIN01000062
p1653
S'PRJNA224116'
p1654
sVNZ_AEZC01000202
p1655
S'PRJNA80489'
p1656
sVNZ_AMWW01000165
p1657
S'PRJNA201366'
p1658
sVNZ_KB661488
p1659
S'195206'
p1660
sVNZ_AHGM01000053
p1661
S'PRJNA190314'
p1662
sVNZ_AHGM01000052
p1663
S'PRJNA190314'
p1664
sVNZ_AIDL01000041
p1665
S'PRJNA200030'
p1666
sVNZ_KB454210
p1667
S'183741'
p1668
sVNZ_AMBT01000027
p1669
S'PRJNA190522'
p1670
sVNZ_AHFZ01000050
p1671
S'PRJNA190314'
p1672
sVNZ_KI530559
p1673
S'PRJNA224116'
p1674
sVNZ_AJYN01000183
p1675
S'PRJNA200156'
p1676
sVNZ_DS999362
p1677
S'54741'
p1678
sVNZ_AYNM01000035
p1679
S'PRJNA224116'
p1680
sVNZ_AJYN01000189
p1681
S'PRJNA200156'
p1682
sVNZ_JH942456
p1683
S'181791'
p1684
sVNZ_AMBT01000022
p1685
S'PRJNA190522'
p1686
sVNZ_JH377890
p1687
S'181603'
p1688
sVNZ_AWNE01000240
p1689
S'PRJNA224116'
p1690
sVNZ_KB661730
p1691
S'195212'
p1692
sVNZ_KB661762
p1693
S'195212'
p1694
sVNZ_DS179750
p1695
S'54329'
p1696
sVNZ_BAVJ01000008
p1697
S'PRJNA224116'
p1698
sVNZ_BAVJ01000009
p1699
S'PRJNA224116'
p1700
sVNZ_AWKE01000180
p1701
S'PRJNA224116'
p1702
sVNZ_BAVJ01000003
p1703
S'PRJNA224116'
p1704
sVNZ_AWJT01000075
p1705
S'PRJNA224116'
p1706
sVNZ_BAVJ01000007
p1707
S'PRJNA224116'
p1708
sVNZ_KB661602
p1709
S'195231'
p1710
sVNZ_AJYV01000209
p1711
S'PRJNA200164'
p1712
sVNZ_AWKF01000229
p1713
S'PRJNA224116'
p1714
sVNZ_KB454093
p1715
S'PRJNA183744'
p1716
sVNZ_AJYS01000168
p1717
S'PRJNA200161'
p1718
sVNZ_AWHM01000034
p1719
S'PRJNA224116'
p1720
sVNZ_AWLF01000036
p1721
S'PRJNA224116'
p1722
sVNZ_AWKA01000109
p1723
S'PRJNA224116'
p1724
sVNZ_JH941932
p1725
S'181799'
p1726
sVNZ_JH377912
p1727
S'181603'
p1728
sVNZ_AOMR01000019
p1729
S'PRJNA199932'
p1730
sVNZ_JH377910
p1731
S'181603'
p1732
sVNZ_JH942451
p1733
S'181803'
p1734
sVNZ_JH377915
p1735
S'181603'
p1736
sVNZ_AFSV01000028
p1737
S'PRJNA190225'
p1738
sVNZ_JOKT01000021
p1739
S'PRJNA224116'
p1740
sVNZ_JH724636
p1741
S'181806'
p1742
sVNZ_JH724637
p1743
S'181806'
p1744
sVNZ_JOKT01000024
p1745
S'PRJNA224116'
p1746
sVNZ_JH941442
p1747
S'181808'
p1748
sVNZ_JH941443
p1749
S'181808'
p1750
sVNZ_JH941440
p1751
S'181808'
p1752
sVNZ_AFSV01000022
p1753
S'PRJNA190225'
p1754
sVNZ_JH941712
p1755
S'181794'
p1756
sVNZ_JH941713
p1757
S'181794'
p1758
sVNZ_JH973555
p1759
S'181738'
p1760
sVNZ_KB663027
p1761
S'195219'
p1762
sVNZ_AWKX01000132
p1763
S'PRJNA224116'
p1764
sVNZ_AWKY01000358
p1765
S'PRJNA224116'
p1766
sVNZ_AWLG01000130
p1767
S'PRJNA224116'
p1768
sVNZ_KB663022
p1769
S'195219'
p1770
sVNZ_AWJG01000555
p1771
S'PRJNA224116'
p1772
sVNZ_AWMY01000046
p1773
S'PRJNA224116'
p1774
sVNZ_KB454288
p1775
S'183742'
p1776
sVNZ_AXNL01000475
p1777
S'PRJNA224116'
p1778
sVNZ_AWMX01000026
p1779
S'PRJNA224116'
p1780
sVNZ_AHFX01000057
p1781
S'PRJNA190314'
p1782
sVNZ_AJZM01000116
p1783
S'PRJNA200180'
p1784
sVNZ_AWKB01000007
p1785
S'PRJNA224116'
p1786
sVNZ_CH902599
p1787
S'54237'
p1788
sVNZ_AWMS01000052
p1789
S'PRJNA224116'
p1790
sVNZ_AWLC01000050
p1791
S'PRJNA224116'
p1792
sVNZ_JPKU01000017
p1793
S'PRJNA224116'
p1794
sVNZ_AWKY01000131
p1795
S'PRJNA224116'
p1796
sVNZ_CH902593
p1797
S'54241'
p1798
sVNZ_AHFX01000058
p1799
S'PRJNA190314'
p1800
sVNZ_JH973424
p1801
S'181733'
p1802
sVNZ_AWMV01000282
p1803
S'PRJNA224116'
p1804
sVNZ_JH973423
p1805
S'181733'
p1806
sVNZ_AWMC01000134
p1807
S'PRJNA224116'
p1808
sVNZ_AWKB01000027
p1809
S'PRJNA224116'
p1810
sVNZ_AIDE01000048
p1811
S'PRJNA200024'
p1812
sVNZ_KB663099
p1813
S'195210'
p1814
sVNZ_KB453645
p1815
S'183749'
p1816
sVNZ_KB663255
p1817
S'195218'
p1818
sVNZ_KB663254
p1819
S'195218'
p1820
sVNZ_JH724960
p1821
S'181798'
p1822
sVNZ_AWIT01000113
p1823
S'PRJNA224116'
p1824
sVNZ_KB663079
p1825
S'195210'
p1826
sVNZ_AMWS01000167
p1827
S'PRJNA201362'
p1828
sVNZ_AMWS01000165
p1829
S'PRJNA201362'
p1830
sVNZ_AMQV01000002
p1831
S'PRJNA199800'
p1832
sVNZ_AWJD01000028
p1833
S'PRJNA224116'
p1834
sVNZ_ATEV02000020
p1835
S'PRJNA224116'
p1836
sVNZ_ATEV02000021
p1837
S'PRJNA224116'
p1838
sVNZ_AWJK01000099
p1839
S'PRJNA224116'
p1840
sVNZ_AWMH01000094
p1841
S'PRJNA224116'
p1842
sVNZ_AWIW01000015
p1843
S'PRJNA224116'
p1844
sVNZ_GL988194
p1845
S'181557'
p1846
sVNZ_AWJX01000011
p1847
S'PRJNA224116'
p1848
sVNZ_GL988192
p1849
S'181557'
p1850
sVNZ_AWKG01000062
p1851
S'PRJNA224116'
p1852
sVNZ_KB662475
p1853
S'195224'
p1854
sVNZ_GL988198
p1855
S'181557'
p1856
sVNZ_ANBX01000123
p1857
S'PRJNA199863'
p1858
sVNZ_AWJT01000357
p1859
S'PRJNA224116'
p1860
sVNZ_AWLT01000510
p1861
S'PRJNA224116'
p1862
sVNZ_AHGQ01000030
p1863
S'PRJNA190314'
p1864
sVNZ_AWHO01000014
p1865
S'PRJNA224116'
p1866
sVNZ_BAVK01000012
p1867
S'PRJNA224116'
p1868
sVNZ_AWIY01000069
p1869
S'PRJNA224116'
p1870
sVNZ_AWHY01000219
p1871
S'PRJNA224116'
p1872
sVNZ_AWHQ01000170
p1873
S'PRJNA224116'
p1874
sVNZ_AEZA01000032
p1875
S'PRJNA200507'
p1876
sVNZ_KB662619
p1877
S'195227'
p1878
sVNZ_AICZ01000132
p1879
S'PRJNA200019'
p1880
sVNZ_AWNB01000130
p1881
S'PRJNA224116'
p1882
sVNZ_GL989134
p1883
S'181563'
p1884
sVNZ_AWHN01000056
p1885
S'PRJNA224116'
p1886
sVNZ_AJYL01000007
p1887
S'PRJNA200154'
p1888
sVNZ_GL988443
p1889
S'181558'
p1890
sVNZ_KK211322
p1891
S'PRJNA224116'
p1892
sVNZ_AJYT01000033
p1893
S'PRJNA200162'
p1894
sVNZ_AWHY01000107
p1895
S'PRJNA224116'
p1896
sVNZ_AWKM01000100
p1897
S'PRJNA224116'
p1898
sVNZ_AWKV01000458
p1899
S'PRJNA224116'
p1900
sVNZ_AJYY01000048
p1901
S'PRJNA200167'
p1902
sVNZ_AWHV01000067
p1903
S'PRJNA224116'
p1904
sVNZ_KB661254
p1905
S'195205'
p1906
sVNZ_AJYY01000049
p1907
S'PRJNA200167'
p1908
sVNZ_KB661251
p1909
S'195205'
p1910
sVNZ_KB661250
p1911
S'195205'
p1912
sVNZ_AWJF01000111
p1913
S'PRJNA224116'
p1914
sVNZ_AWJG01000029
p1915
S'PRJNA224116'
p1916
sVNZ_AWIF01000006
p1917
S'PRJNA224116'
p1918
sVNZ_AIDA01000140
p1919
S'PRJNA200020'
p1920
sVNZ_KB661920
p1921
S'195234'
p1922
sVNZ_AHGA01000032
p1923
S'PRJNA190314'
p1924
sVNZ_KB661925
p1925
S'195234'
p1926
sVNZ_KB661924
p1927
S'195234'
p1928
sVNZ_AJZA01000290
p1929
S'PRJNA200169'
p1930
sVNZ_AJFN02000019
p1931
S'PRJNA190359'
p1932
sVNZ_AHGA01000039
p1933
S'PRJNA190314'
p1934
sVNZ_AWHV01000112
p1935
S'PRJNA224116'
p1936
sVNZ_AXNK01000011
p1937
S'PRJNA224116'
p1938
sVNZ_AWHZ01000096
p1939
S'PRJNA224116'
p1940
sVNZ_KB932190
p1941
S'PRJNA202774'
p1942
sVNZ_AXNK01000018
p1943
S'PRJNA224116'
p1944
sVNZ_AHGP01000006
p1945
S'PRJNA190314'
p1946
sVNZ_AHGP01000005
p1947
S'PRJNA190314'
p1948
sVNZ_AHGP01000001
p1949
S'PRJNA190314'
p1950
sVNZ_AWIH01000104
p1951
S'PRJNA224116'
p1952
sVNZ_AHGL01000035
p1953
S'PRJNA190314'
p1954
sVNC_012583
p1955
S'159869'
p1956
sVNC_012582
p1957
S'159869'
p1958
sVNC_012580
p1959
S'59355'
p1960
sVNZ_GL989317
p1961
S'181563'
p1962
sVNZ_AWJF01000024
p1963
S'PRJNA224116'
p1964
sVNZ_AIDD01000082
p1965
S'PRJNA200023'
p1966
sVNC_017269
p1967
S'159541'
p1968
sVNZ_AWLC01000005
p1969
S'PRJNA224116'
p1970
sVNZ_AWWY01000063
p1971
S'PRJNA222909'
p1972
sVNZ_AWJS01000119
p1973
S'PRJNA224116'
p1974
sVNZ_JH942283
p1975
S'181790'
p1976
sVNZ_AMWF01000043
p1977
S'PRJNA201360'
p1978
sVNZ_JH967136
p1979
S'181725'
p1980
sVNZ_JH967137
p1981
S'181725'
p1982
sVNZ_JH967135
p1983
S'181725'
p1984
sVNZ_AWJM01000259
p1985
S'PRJNA224116'
p1986
sVNZ_DS178186
p1987
S'54587'
p1988
sVNZ_DS178187
p1989
S'54587'
p1990
sVNZ_AHGM01000042
p1991
S'PRJNA190314'
p1992
sVNZ_AWMD01000065
p1993
S'PRJNA224116'
p1994
sVNZ_AJYY01000031
p1995
S'PRJNA200167'
p1996
sVNZ_AWLI01000012
p1997
S'PRJNA224116'
p1998
sVNZ_AWMT01000044
p1999
S'PRJNA224116'
p2000
sVNZ_AWKO01000134
p2001
S'PRJNA224116'
p2002
sVNZ_KB454200
p2003
S'183741'
p2004
sVNZ_AWKU01000124
p2005
S'PRJNA224116'
p2006
sVNZ_GL989606
p2007
S'182021'
p2008
sVNZ_AJZG01000086
p2009
S'PRJNA200174'
p2010
sVNZ_AWNC01000118
p2011
S'PRJNA224116'
p2012
sVNZ_AJZJ01000278
p2013
S'PRJNA200177'
p2014
sVNZ_KB454022
p2015
S'183745'
p2016
sVNZ_KB454023
p2017
S'183745'
p2018
sVNC_022269
p2019
S'PRJNA218471'
p2020
sVNZ_DS179768
p2021
S'54329'
p2022
sVNZ_AWKO01000220
p2023
S'PRJNA224116'
p2024
sVNZ_AWMZ01000113
p2025
S'PRJNA224116'
p2026
sVNZ_AWMF01000018
p2027
S'PRJNA224116'
p2028
sVNZ_AWMF01000017
p2029
S'PRJNA224116'
p2030
sVNZ_DS179760
p2031
S'54329'
p2032
sVNZ_AWIJ01000058
p2033
S'PRJNA224116'
p2034
sVNZ_DS179767
p2035
S'54329'
p2036
sVNZ_AHGB01000049
p2037
S'PRJNA190314'
p2038
sVNZ_KB661745
p2039
S'195212'
p2040
sVNZ_KB661741
p2041
S'195212'
p2042
sVNZ_KB661740
p2043
S'195212'
p2044
sVNZ_AHGB01000044
p2045
S'PRJNA190314'
p2046
sVNZ_AHGB01000047
p2047
S'PRJNA190314'
p2048
sVNZ_KB454444
p2049
S'183743'
p2050
sVNZ_JH636828
p2051
S'PRJNA200032'
p2052
sVNZ_JH942511
p2053
S'181791'
p2054
sVNZ_JH942512
p2055
S'181791'
p2056
sVNZ_AWID01000549
p2057
S'PRJNA224116'
p2058
sVNZ_AMWV01000067
p2059
S'PRJNA201365'
p2060
sVNZ_KB454159
p2061
S'PRJNA183744'
p2062
sVNZ_AWMK01000184
p2063
S'PRJNA224116'
p2064
sVNZ_AWWY01000119
p2065
S'PRJNA222909'
p2066
sVNZ_AWLF01000043
p2067
S'PRJNA224116'
p2068
sVNZ_AXNL01000049
p2069
S'PRJNA224116'
p2070
sVNZ_AWKA01000133
p2071
S'PRJNA224116'
p2072
sVNZ_AWKA01000132
p2073
S'PRJNA224116'
p2074
sVNZ_AFSV01000036
p2075
S'PRJNA190225'
p2076
sVNZ_JH941438
p2077
S'181808'
p2078
sVNZ_KB453924
p2079
S'183746'
p2080
sVNZ_JH941432
p2081
S'181808'
p2082
sVNZ_AWMP01000048
p2083
S'PRJNA224116'
p2084
sVNZ_AWMX01000161
p2085
S'PRJNA224116'
p2086
sVNZ_JH941766
p2087
S'181805'
p2088
sVNZ_JH973545
p2089
S'181738'
p2090
sVNZ_AELJ01000054
p2091
S'PRJNA190214'
p2092
sVNZ_JH941761
p2093
S'181794'
p2094
sVNZ_JH941760
p2095
S'181794'
p2096
sVNZ_AJZP01000134
p2097
S'PRJNA200183'
p2098
sVNZ_AJYI01000169
p2099
S'PRJNA200151'
p2100
sVNZ_AWJU01000087
p2101
S'PRJNA224116'
p2102
sVNZ_AWJA01000009
p2103
S'PRJNA224116'
p2104
sVNZ_AHGN01000014
p2105
S'PRJNA190314'
p2106
sVNZ_JH377845
p2107
S'181604'
p2108
sVNZ_AOCL01000027
p2109
S'PRJNA229950'
p2110
sVNZ_JH377846
p2111
S'181604'
p2112
sVNZ_AJZP01000151
p2113
S'PRJNA200183'
p2114
sVNZ_JHXR01000001
p2115
S'PRJNA224116'
p2116
sVNZ_JHXR01000003
p2117
S'PRJNA224116'
p2118
sVNZ_JHXR01000002
p2119
S'PRJNA224116'
p2120
sVNC_019955
p2121
S'184822'
p2122
sVNZ_AYOM01000033
p2123
S'PRJNA224116'
p2124
sVNZ_JH973432
p2125
S'181733'
p2126
sVNZ_AJYS01000005
p2127
S'PRJNA200161'
p2128
sVNZ_JH973430
p2129
S'181733'
p2130
sVNZ_AJZL01000108
p2131
S'PRJNA200179'
p2132
sVNZ_JH973434
p2133
S'181733'
p2134
sVNZ_GL988056
p2135
S'181557'
p2136
sVNZ_JH377599
p2137
S'181608'
p2138
sVNZ_AWHM01000171
p2139
S'PRJNA224116'
p2140
sVNZ_JH941360
p2141
S'181800'
p2142
sVNZ_AFAJ01000041
p2143
S'PRJNA73893'
p2144
sVNZ_JH941366
p2145
S'181800'
p2146
sVNZ_AJZQ01000110
p2147
S'PRJNA200184'
p2148
sVNZ_KB663085
p2149
S'195210'
p2150
sVNZ_AWLH01000026
p2151
S'PRJNA224116'
p2152
sVNZ_AJYW01000207
p2153
S'PRJNA200165'
p2154
sVNZ_KB662556
p2155
S'195226'
p2156
sVNZ_GL988239
p2157
S'181557'
p2158
sVNZ_KB662044
p2159
S'195207'
p2160
sVNZ_KB662595
p2161
S'195227'
p2162
sVNZ_KB662046
p2163
S'195207'
p2164
sVNZ_KB662043
p2165
S'195207'
p2166
sVNZ_AMWT01000038
p2167
S'PRJNA201363'
p2168
sVNZ_AMWT01000036
p2169
S'PRJNA201363'
p2170
sVNZ_AWIT01000253
p2171
S'PRJNA224116'
p2172
sVNZ_AWLT01000181
p2173
S'PRJNA224116'
p2174
sVNZ_AYNL01000119
p2175
S'PRJNA224116'
p2176
sVNZ_AJZB01000203
p2177
S'PRJNA200170'
p2178
sVNZ_AYNL01000113
p2179
S'PRJNA224116'
p2180
sVNZ_AWLJ01000022
p2181
S'PRJNA224116'
p2182
sVNZ_AYNL01000117
p2183
S'PRJNA224116'
p2184
sVNZ_AWJR01000480
p2185
S'PRJNA224116'
p2186
sVNZ_ANNM01000113
p2187
S'PRJNA201368'
p2188
sVNZ_ANBX01000130
p2189
S'PRJNA199863'
p2190
sVNZ_AJZE01000001
p2191
S'PRJNA200172'
p2192
sVNZ_AWLH01000400
p2193
S'PRJNA224116'
p2194
sVNZ_AWMM01000119
p2195
S'PRJNA224116'
p2196
sVNZ_JH724488
p2197
S'181804'
p2198
sVNZ_GL989129
p2199
S'181562'
p2200
sVNZ_ASAJ01000010
p2201
S'PRJNA203100'
p2202
sVNZ_AMWS01000023
p2203
S'PRJNA201362'
p2204
sVNZ_AWHN01000067
p2205
S'PRJNA224116'
p2206
sVNZ_AIDH01000093
p2207
S'PRJNA175805'
p2208
sVNZ_AIDM01000030
p2209
S'PRJNA200031'
p2210
sVNZ_CH902592
p2211
S'54241'
p2212
sVNC_015633
p2213
S'68057'
p2214
sVNC_015637
p2215
S'68057'
p2216
sVNZ_AHGM01000040
p2217
S'PRJNA190314'
p2218
sVNZ_KB661248
p2219
S'195205'
p2220
sVNZ_AGIE01000007
p2221
S'PRJNA167582'
p2222
sVNZ_KB661243
p2223
S'195205'
p2224
sVNZ_KB661241
p2225
S'195205'
p2226
sVNZ_KB661245
p2227
S'195205'
p2228
sVNZ_AWHT01000051
p2229
S'PRJNA224116'
p2230
sVNZ_AWIX01000032
p2231
S'PRJNA224116'
p2232
sVNZ_AWLK01000058
p2233
S'PRJNA224116'
p2234
sVNZ_AWIF01000033
p2235
S'PRJNA224116'
p2236
sVNZ_AWMD01000447
p2237
S'PRJNA224116'
p2238
sVNZ_AMWV01000119
p2239
S'PRJNA201365'
p2240
sVNZ_KB662587
p2241
S'195227'
p2242
sVNZ_AWJI01000133
p2243
S'PRJNA224116'
p2244
sVNZ_GL988582
p2245
S'181559'
p2246
sVNZ_AWLQ01000276
p2247
S'PRJNA224116'
p2248
sVNZ_GL988581
p2249
S'181559'
p2250
sVNZ_AJFN02000021
p2251
S'PRJNA190359'
p2252
sVNZ_AHGA01000026
p2253
S'PRJNA190314'
p2254
sVNZ_AHGD01000031
p2255
S'PRJNA190314'
p2256
sVNZ_AJFN02000025
p2257
S'PRJNA190359'
p2258
sVNZ_AJFN02000027
p2259
S'PRJNA190359'
p2260
sVNZ_KB661939
p2261
S'195234'
p2262
sVNZ_BAOH01000086
p2263
S'PRJNA203327'
p2264
sVNZ_AWMO01000042
p2265
S'PRJNA224116'
p2266
sVNZ_AWNF01000016
p2267
S'PRJNA224116'
p2268
sVNZ_DS179590
p2269
S'54457'
p2270
sVNZ_AWLV01000065
p2271
S'PRJNA224116'
p2272
sVNZ_AELJ01000039
p2273
S'PRJNA190214'
p2274
sVNZ_JH724349
p2275
S'181797'
p2276
sVNZ_JH724342
p2277
S'181797'
p2278
sVNZ_JH724343
p2279
S'181797'
p2280
sVNZ_JH724347
p2281
S'181797'
p2282
sVNZ_GL989308
p2283
S'181563'
p2284
sVNZ_AJZA01000403
p2285
S'PRJNA200169'
p2286
sVNZ_AWIR01000016
p2287
S'PRJNA224116'
p2288
sVNC_017270
p2289
S'159541'
p2290
sVNC_022528
p2291
S'PRJNA222819'
p2292
sVNZ_KB662940
p2293
S'195219'
p2294
sVNC_012578
p2295
S'59355'
p2296
sVNZ_AMWF01000070
p2297
S'PRJNA201360'
p2298
sVNZ_AJZK01000102
p2299
S'PRJNA200178'
p2300
sVNZ_AWLR01000178
p2301
S'PRJNA224116'
p2302
sVNZ_JH967388
p2303
S'181727'
p2304
sVNZ_AWMG01000235
p2305
S'PRJNA224116'
p2306
sVNZ_DS178176
p2307
S'54587'
p2308
sVNZ_JH967380
p2309
S'181727'
p2310
sVNZ_AWII01000066
p2311
S'PRJNA224116'
p2312
sVNZ_AWIN01000005
p2313
S'PRJNA224116'
p2314
sVNZ_JH967387
p2315
S'181727'
p2316
sVNZ_AWME01000029
p2317
S'PRJNA224116'
p2318
sVNZ_AIDL01000065
p2319
S'PRJNA200030'
p2320
sVNZ_ANHS01000057
p2321
S'PRJNA198283'
p2322
sVNZ_AIDB01000098
p2323
S'PRJNA200021'
p2324
sVNZ_AHGA01000061
p2325
S'PRJNA190314'
p2326
sVNZ_AJYM01000055
p2327
S'PRJNA200155'
p2328
sVNZ_AXNK01000026
p2329
S'PRJNA224116'
p2330
sVNZ_JH636632
p2331
S'PRJNA200022'
p2332
sVNZ_AWJB01000568
p2333
S'PRJNA224116'
p2334
sVNZ_KI549225
p2335
S'PRJNA230256'
p2336
sVNZ_AWMZ01000161
p2337
S'PRJNA224116'
p2338
sVNZ_AWKP01000063
p2339
S'PRJNA224116'
p2340
sVNZ_AWJC01000016
p2341
S'PRJNA224116'
p2342
sVNZ_KB662943
p2343
S'195219'
p2344
sVNZ_JH967567
p2345
S'181729'
p2346
sVNZ_JH967563
p2347
S'181729'
p2348
sVNZ_JH967562
p2349
S'181729'
p2350
sVNZ_DS178087
p2351
S'54591'
p2352
sVNZ_AHGG01000023
p2353
S'PRJNA190314'
p2354
sVNZ_AHGB01000053
p2355
S'PRJNA190314'
p2356
sVNZ_DS178081
p2357
S'54591'
p2358
sVNZ_AWJZ01000306
p2359
S'PRJNA224116'
p2360
sVNZ_ANBW01000054
p2361
S'PRJNA199862'
p2362
sVNZ_AJYR01000178
p2363
S'PRJNA200160'
p2364
sVNZ_DS178089
p2365
S'54591'
p2366
sVNZ_JH973518
p2367
S'181733'
p2368
sVNZ_KB454306
p2369
S'183742'
p2370
sVNZ_KB454301
p2371
S'183742'
p2372
sVNZ_KB454302
p2373
S'183742'
p2374
sVNZ_AWJT01000010
p2375
S'PRJNA224116'
p2376
sVNZ_JH636835
p2377
S'PRJNA200033'
p2378
sVNZ_JH636836
p2379
S'PRJNA200033'
p2380
sVNZ_AWJT01000014
p2381
S'PRJNA224116'
p2382
sVNZ_JH724614
p2383
S'181806'
p2384
sVNZ_KB454160
p2385
S'PRJNA183744'
p2386
sVNZ_AWJJ01000069
p2387
S'PRJNA224116'
p2388
sVNZ_BAVK01000004
p2389
S'PRJNA224116'
p2390
sVNZ_AWHY01000123
p2391
S'PRJNA224116'
p2392
sVNZ_ANBW01000200
p2393
S'PRJNA199862'
p2394
sVNZ_AWHH01000027
p2395
S'PRJNA224116'
p2396
sVNZ_DS178223
p2397
S'54587'
p2398
sVNZ_DS178220
p2399
S'54587'
p2400
sVNZ_AWLD01000061
p2401
S'PRJNA224116'
p2402
sVNZ_JH377624
p2403
S'181606'
p2404
sVNZ_AHTI01000256
p2405
S'PRJNA200006'
p2406
sVNZ_AHGE01000004
p2407
S'PRJNA190314'
p2408
sVNZ_AXNR01000001
p2409
S'PRJNA224116'
p2410
sVNZ_JOKT01000009
p2411
S'PRJNA224116'
p2412
sVNZ_KB454019
p2413
S'183745'
p2414
sVNZ_DS999348
p2415
S'54741'
p2416
sVNZ_AFSV01000046
p2417
S'PRJNA190225'
p2418
sVNZ_JH967739
p2419
S'181730'
p2420
sVNZ_AWMP01000038
p2421
S'PRJNA224116'
p2422
sVNZ_JH724658
p2423
S'181789'
p2424
sVNZ_DS999347
p2425
S'54741'
p2426
sVNZ_AJYU01000153
p2427
S'PRJNA200163'
p2428
sVNZ_AWLY01000159
p2429
S'PRJNA224116'
p2430
sVNZ_AJYR01000223
p2431
S'PRJNA200160'
p2432
sVNZ_AYKI01000069
p2433
S'PRJNA224116'
p2434
sVNZ_AJYX01000051
p2435
S'PRJNA200166'
p2436
sVNZ_JH377852
p2437
S'181604'
p2438
sVNZ_AWLR01000427
p2439
S'PRJNA224116'
p2440
sVNZ_JHXR01000014
p2441
S'PRJNA224116'
p2442
sVNZ_JHXR01000010
p2443
S'PRJNA224116'
p2444
sVNZ_JHXR01000011
p2445
S'PRJNA224116'
p2446
sVNZ_ANNM01000121
p2447
S'PRJNA201368'
p2448
sVNZ_ANNM01000125
p2449
S'PRJNA201368'
p2450
sVNZ_AWKW01000009
p2451
S'PRJNA224116'
p2452
sVNZ_AXNJ01000082
p2453
S'PRJNA224116'
p2454
sVNZ_DS180174
p2455
S'54593'
p2456
sVNZ_AJYX01000056
p2457
S'PRJNA200166'
p2458
sVNZ_ANNM01000065
p2459
S'PRJNA201368'
p2460
sVNZ_AWHP01000134
p2461
S'PRJNA224116'
p2462
sVNZ_ANNM01000064
p2463
S'PRJNA201368'
p2464
sVNZ_AWMW01000217
p2465
S'PRJNA224116'
p2466
sVNZ_JH941172
p2467
S'181796'
p2468
sVNZ_JH941171
p2469
S'181796'
p2470
sVNZ_AWLG01000250
p2471
S'PRJNA224116'
p2472
sVNZ_AWML01000168
p2473
S'PRJNA224116'
p2474
sVNZ_JH377584
p2475
S'181608'
p2476
sVNZ_AJYV01000156
p2477
S'PRJNA200164'
p2478
sVNZ_AJZQ01000104
p2479
S'PRJNA200184'
p2480
sVNZ_JH973685
p2481
S'181735'
p2482
sVNZ_JH973687
p2483
S'181735'
p2484
sVNZ_JH973686
p2485
S'181735'
p2486
sVNZ_BAVH01000037
p2487
S'PRJNA224116'
p2488
sVNZ_AWLG01000085
p2489
S'PRJNA224116'
p2490
sVNZ_AWNE01000132
p2491
S'PRJNA224116'
p2492
sVNZ_AWIH01000018
p2493
S'PRJNA224116'
p2494
sVNZ_JH941080
p2495
S'181796'
p2496
sVNZ_JH941081
p2497
S'181796'
p2498
sVNZ_KB663279
p2499
S'195218'
p2500
sVNZ_KB663278
p2501
S'195218'
p2502
sVNZ_JH941085
p2503
S'181796'
p2504
sVNZ_KB663503
p2505
S'195214'
p2506
sVNZ_KB663502
p2507
S'195214'
p2508
sVNZ_KB663501
p2509
S'195214'
p2510
sVNZ_AHGH01000004
p2511
S'PRJNA190314'
p2512
sVNZ_KB663059
p2513
S'195210'
p2514
sVNZ_KB663058
p2515
S'195210'
p2516
sVNZ_AHGH01000001
p2517
S'PRJNA190314'
p2518
sVNZ_JH974002
p2519
S'181734'
p2520
sVNZ_AMWT01000025
p2521
S'PRJNA201363'
p2522
sVNZ_AMWS01000102
p2523
S'PRJNA201362'
p2524
sVNZ_KB662588
p2525
S'195227'
p2526
sVNZ_AMWS01000105
p2527
S'PRJNA201362'
p2528
sVNZ_AMWS01000106
p2529
S'PRJNA201362'
p2530
sVNZ_AYNN01000163
p2531
S'PRJNA224116'
p2532
sVNZ_AJYP01000053
p2533
S'PRJNA200158'
p2534
sVNZ_KB453685
p2535
S'183749'
p2536
sVNZ_KB453687
p2537
S'183749'
p2538
sVNZ_AYNL01000104
p2539
S'PRJNA224116'
p2540
sVNZ_AYNL01000105
p2541
S'PRJNA224116'
p2542
sVNZ_AHGH01000011
p2543
S'PRJNA190314'
p2544
sVNZ_AWJN01000047
p2545
S'PRJNA224116'
p2546
sVNZ_AWKX01000372
p2547
S'PRJNA224116'
p2548
sVNZ_AHGH01000012
p2549
S'PRJNA190314'
p2550
sVNZ_KB662451
p2551
S'195224'
p2552
sVNZ_AWNA01000129
p2553
S'PRJNA224116'
p2554
sVNZ_KB663182
p2555
S'195220'
p2556
sVNZ_AMWT01000011
p2557
S'PRJNA201363'
p2558
sVNZ_AJZG01000004
p2559
S'PRJNA200174'
p2560
sVNZ_GL989437
p2561
S'181564'
p2562
sVNZ_AJZN01000400
p2563
S'PRJNA200181'
p2564
sVNZ_AIDQ01000003
p2565
S'PRJNA200035'
p2566
sVNC_002505
p2567
S'PRJNA57623'
p2568
sVNZ_JH720480
p2569
S'PRJNA200275'
p2570
sVNZ_AMWU01000063
p2571
S'PRJNA201364'
p2572
sVNZ_JH974073
p2573
S'181734'
p2574
sVNZ_AWHW01000078
p2575
S'PRJNA224116'
p2576
sVNZ_AMWS01000034
p2577
S'PRJNA201362'
p2578
sVNZ_ASAJ01000004
p2579
S'PRJNA203100'
p2580
sVNZ_ASAJ01000009
p2581
S'PRJNA203100'
p2582
sVNZ_GL988318
p2583
S'181558'
p2584
sVNZ_JH974070
p2585
S'181734'
p2586
sVNC_016446
p2587
S'78933'
p2588
sVNC_016445
p2589
S'78933'
p2590
sVNZ_AWJR01000019
p2591
S'PRJNA224116'
p2592
sVNZ_AHGF01000020
p2593
S'PRJNA190314'
p2594
sVNZ_KB662122
p2595
S'195232'
p2596
sVNZ_AXNS01000024
p2597
S'PRJNA224116'
p2598
sVNZ_KB662121
p2599
S'195232'
p2600
sVNZ_AWHL01000098
p2601
S'PRJNA224116'
p2602
sVNZ_KB662128
p2603
S'195232'
p2604
sVNZ_KB662129
p2605
S'195232'
p2606
sVNZ_AEZB01000076
p2607
S'PRJNA200508'
p2608
sVNZ_KB662900
p2609
S'195222'
p2610
sVNZ_AHGD01000008
p2611
S'PRJNA190314'
p2612
sVNZ_AHGD01000003
p2613
S'PRJNA190314'
p2614
sVNZ_AHGD01000001
p2615
S'PRJNA190314'
p2616
sVNZ_AHGD01000007
p2617
S'PRJNA190314'
p2618
sVNZ_AHGD01000006
p2619
S'PRJNA190314'
p2620
sVNZ_AHGD01000004
p2621
S'PRJNA190314'
p2622
sVNZ_JH966759
p2623
S'181724'
p2624
sVNZ_JH966758
p2625
S'181724'
p2626
sVNZ_AIDD01000155
p2627
S'PRJNA200023'
p2628
sVNZ_JH966750
p2629
S'181724'
p2630
sVNZ_AJFN02000034
p2631
S'PRJNA190359'
p2632
sVNZ_AJFN02000035
p2633
S'PRJNA190359'
p2634
sVNZ_AJFN02000032
p2635
S'PRJNA190359'
p2636
sVNZ_AJFN02000033
p2637
S'PRJNA190359'
p2638
sVNZ_AJFN02000030
p2639
S'PRJNA190359'
p2640
sVNZ_AWIW01000216
p2641
S'PRJNA224116'
p2642
sVNZ_AHGA01000018
p2643
S'PRJNA190314'
p2644
sVNZ_AJYJ01000017
p2645
S'PRJNA200152'
p2646
sVNZ_AHGP01000029
p2647
S'PRJNA190314'
p2648
sVNZ_AELJ01000003
p2649
S'PRJNA190214'
p2650
sVNZ_AWIJ01000106
p2651
S'PRJNA224116'
p2652
sVNZ_KB661346
p2653
S'195205'
p2654
sVNZ_AWLV01000270
p2655
S'PRJNA224116'
p2656
sVNZ_AWKC01000040
p2657
S'PRJNA224116'
p2658
sVNZ_AMBS01000037
p2659
S'PRJNA190521'
p2660
sVNZ_AMBS01000036
p2661
S'PRJNA190521'
p2662
sVNZ_AMBS01000033
p2663
S'PRJNA190521'
p2664
sVNZ_AMBS01000032
p2665
S'PRJNA190521'
p2666
sVNZ_AMBS01000031
p2667
S'PRJNA190521'
p2668
sVNZ_AWIS01000063
p2669
S'PRJNA224116'
p2670
sVNZ_AXNJ01000048
p2671
S'PRJNA224116'
p2672
sVNZ_KB663195
p2673
S'195220'
p2674
sVNZ_AXNJ01000045
p2675
S'PRJNA224116'
p2676
sVNZ_JH377524
p2677
S'181608'
p2678
sVNZ_AMWF01000062
p2679
S'PRJNA201360'
p2680
sVNZ_AWWY01000040
p2681
S'PRJNA222909'
p2682
sVNZ_AWWY01000043
p2683
S'PRJNA222909'
p2684
sVNZ_AMWF01000061
p2685
S'PRJNA201360'
p2686
sVNZ_AWJQ01000151
p2687
S'PRJNA224116'
p2688
sVNZ_JH967405
p2689
S'181727'
p2690
sVNZ_JH967150
p2691
S'181725'
p2692
sVNZ_JH967403
p2693
S'181727'
p2694
sVNZ_AWLK01000312
p2695
S'PRJNA224116'
p2696
sVNZ_JH967398
p2697
S'181727'
p2698
sVNZ_AWLW01000030
p2699
S'PRJNA224116'
p2700
sVNZ_DS178169
p2701
S'54587'
p2702
sVNZ_AIDI01000045
p2703
S'PRJNA200027'
p2704
sVNZ_AWIK01000047
p2705
S'PRJNA224116'
p2706
sVNZ_JH967391
p2707
S'181727'
p2708
sVNZ_AWMB01000070
p2709
S'PRJNA224116'
p2710
sVNZ_AWME01000034
p2711
S'PRJNA224116'
p2712
sVNZ_AWME01000032
p2713
S'PRJNA224116'
p2714
sVNZ_AHGC01000018
p2715
S'PRJNA190314'
p2716
sVNZ_AHGC01000016
p2717
S'PRJNA190314'
p2718
sVNZ_AHGC01000013
p2719
S'PRJNA190314'
p2720
sVNZ_AWKU01000149
p2721
S'PRJNA224116'
p2722
sVNZ_GL988191
p2723
S'181557'
p2724
sVNZ_AWMO01000050
p2725
S'PRJNA224116'
p2726
sVNZ_JH942404
p2727
S'181803'
p2728
sVNZ_JH942403
p2729
S'181803'
p2730
sVNZ_KK211219
p2731
S'PRJNA224116'
p2732
sVNZ_KB660010
p2733
S'PRJNA199932'
p2734
sVNZ_ANHS01000084
p2735
S'PRJNA198283'
p2736
sVNZ_ANHS01000081
p2737
S'PRJNA198283'
p2738
sVNZ_AHFX01000066
p2739
S'PRJNA190314'
p2740
sVNZ_JH967571
p2741
S'181729'
p2742
sVNZ_AWKZ01000090
p2743
S'PRJNA224116'
p2744
sVNZ_JFGR01000022
p2745
S'PRJNA224116'
p2746
sVNZ_AWKZ01000092
p2747
S'PRJNA224116'
p2748
sVNZ_JH967579
p2749
S'181729'
p2750
sVNZ_KB661765
p2751
S'195212'
p2752
sVNZ_AWKS01000030
p2753
S'PRJNA224116'
p2754
sVNZ_KB661766
p2755
S'195212'
p2756
sVNZ_DS178096
p2757
S'54591'
p2758
sVNZ_JH724796
p2759
S'181793'
p2760
sVNZ_JH724791
p2761
S'181793'
p2762
sVNZ_AXNQ01000028
p2763
S'PRJNA224116'
p2764
sVNZ_AELI01000081
p2765
S'PRJNA190213'
p2766
sVNZ_ATFJ01000025
p2767
S'PRJNA210494'
p2768
sVNZ_AWIF01000349
p2769
S'PRJNA224116'
p2770
sVNZ_JH636801
p2771
S'PRJNA200028'
p2772
sVNZ_AWLD01000093
p2773
S'PRJNA224116'
p2774
sVNZ_JH636802
p2775
S'PRJNA200028'
p2776
sVNZ_KB454176
p2777
S'183741'
p2778
sVNZ_KB454177
p2779
S'183741'
p2780
sVNZ_JH942313
p2781
S'181790'
p2782
sVNZ_JH942312
p2783
S'181790'
p2784
sVNZ_JH942311
p2785
S'181790'
p2786
sVNZ_JH942316
p2787
S'181790'
p2788
sVNZ_KK211323
p2789
S'PRJNA224116'
p2790
sVNZ_JH636798
p2791
S'PRJNA200027'
p2792
sVNZ_AHFY01000073
p2793
S'PRJNA190314'
p2794
sVNZ_AIDL01000024
p2795
S'PRJNA200030'
p2796
sVNC_021848
p2797
S'PRJNA212977'
p2798
sVNZ_AWLA01000004
p2799
S'PRJNA224116'
p2800
sVNZ_AWLD01000073
p2801
S'PRJNA224116'
p2802
sVNZ_JH941961
p2803
S'181799'
p2804
sVNZ_JOKT01000013
p2805
S'PRJNA224116'
p2806
sVNZ_JOKT01000010
p2807
S'PRJNA224116'
p2808
sVNZ_JH724662
p2809
S'181789'
p2810
sVNZ_KB454008
p2811
S'183745'
p2812
sVNZ_KB454009
p2813
S'183745'
p2814
sVNZ_KB454002
p2815
S'183745'
p2816
sVNZ_KB454001
p2817
S'183745'
p2818
sVNZ_KB662729
p2819
S'195208'
p2820
sVNZ_JH976180
p2821
S'181739'
p2822
sVNZ_AHGL01000013
p2823
S'PRJNA190314'
p2824
sVNZ_JH976184
p2825
S'181739'
p2826
sVNZ_JH377827
p2827
S'181604'
p2828
sVNZ_JH377826
p2829
S'181604'
p2830
sVNZ_DS267852
p2831
S'54337'
p2832
sVNZ_AWIG01000168
p2833
S'PRJNA224116'
p2834
sVNZ_AWKA01000062
p2835
S'PRJNA224116'
p2836
sVNC_019971
p2837
S'184822'
p2838
sVNZ_AJZH01000029
p2839
S'PRJNA200175'
p2840
sVNZ_ANBW01000152
p2841
S'PRJNA199862'
p2842
sVNZ_AHGK01000014
p2843
S'PRJNA190314'
p2844
sVNZ_AJYX01000098
p2845
S'PRJNA200166'
p2846
sVNZ_AWKD01000055
p2847
S'PRJNA224116'
p2848
sVNC_014653
p2849
S'187784'
p2850
sVNZ_AWLM01000017
p2851
S'PRJNA224116'
p2852
sVNZ_JH973546
p2853
S'181738'
p2854
sVNZ_AWKF01000059
p2855
S'PRJNA224116'
p2856
sVNZ_AJYM01000057
p2857
S'PRJNA200155'
p2858
sVNZ_JH941344
p2859
S'181800'
p2860
sVNZ_AJYV01000146
p2861
S'PRJNA200164'
p2862
sVNZ_JH941343
p2863
S'181800'
p2864
sVNZ_JH941342
p2865
S'181800'
p2866
sVNZ_JH377623
p2867
S'181606'
p2868
sVNZ_AWJE01000090
p2869
S'PRJNA224116'
p2870
sVNZ_JH967535
p2871
S'181728'
p2872
sVNZ_JH377629
p2873
S'181606'
p2874
sVNZ_ASHJ01000225
p2875
S'PRJNA224116'
p2876
sVNZ_JH973541
p2877
S'181738'
p2878
sVNZ_AHFZ01000072
p2879
S'PRJNA190314'
p2880
sVNZ_AWIZ01000104
p2881
S'PRJNA224116'
p2882
sVNZ_JH724935
p2883
S'181798'
p2884
sVNZ_JH724934
p2885
S'181798'
p2886
sVNZ_JH941740
p2887
S'181794'
p2888
sVNZ_AWMX01000101
p2889
S'PRJNA224116'
p2890
sVNZ_AXNL01000247
p2891
S'PRJNA224116'
p2892
sVNZ_AHGH01000014
p2893
S'PRJNA190314'
p2894
sVNZ_AHGH01000017
p2895
S'PRJNA190314'
p2896
sVNZ_GL988785
p2897
S'181560'
p2898
sVNZ_KB663515
p2899
S'195211'
p2900
sVNZ_AWHO01000116
p2901
S'PRJNA224116'
p2902
sVNZ_AHGH01000013
p2903
S'PRJNA190314'
p2904
sVNZ_AWIU01000061
p2905
S'PRJNA224116'
p2906
sVNZ_KB663519
p2907
S'195211'
p2908
sVNZ_JH974074
p2909
S'181734'
p2910
sVNZ_AHGH01000018
p2911
S'PRJNA190314'
p2912
sVNZ_AJYP01000062
p2913
S'PRJNA200158'
p2914
sVNZ_AWMH01000062
p2915
S'PRJNA224116'
p2916
sVNZ_JADA01000007
p2917
S'PRJNA224116'
p2918
sVNZ_JADA01000006
p2919
S'PRJNA224116'
p2920
sVNZ_JADA01000005
p2921
S'PRJNA224116'
p2922
sVNZ_JADA01000004
p2923
S'PRJNA224116'
p2924
sVNZ_AYNL01000138
p2925
S'PRJNA224116'
p2926
sVNZ_AJZQ01000005
p2927
S'PRJNA200184'
p2928
sVNZ_KB663198
p2929
S'195220'
p2930
sVNZ_KB663194
p2931
S'195220'
p2932
sVNZ_AYNN01000082
p2933
S'PRJNA224116'
p2934
sVNZ_AWKI01000119
p2935
S'PRJNA224116'
p2936
sVNZ_AIDI01000041
p2937
S'PRJNA200027'
p2938
sVNZ_JH377488
p2939
S'181608'
p2940
sVNZ_KB663193
p2941
S'195220'
p2942
sVNZ_AHFX01000068
p2943
S'PRJNA190314'
p2944
sVNZ_AHFX01000069
p2945
S'PRJNA190314'
p2946
sVNZ_AWHM01000318
p2947
S'PRJNA224116'
p2948
sVNZ_AWLE01000022
p2949
S'PRJNA224116'
p2950
sVNZ_JH976161
p2951
S'181739'
p2952
sVNZ_AIDQ01000076
p2953
S'PRJNA200035'
p2954
sVNZ_AEZA01000040
p2955
S'PRJNA200507'
p2956
sVNZ_AYKI01000032
p2957
S'PRJNA224116'
p2958
sVNZ_KB662331
p2959
S'195230'
p2960
sVNZ_AWIX01000301
p2961
S'PRJNA224116'
p2962
sVNZ_AEZA01000046
p2963
S'PRJNA200507'
p2964
sVNZ_KB662481
p2965
S'195226'
p2966
sVNZ_KB662480
p2967
S'195224'
p2968
sVNZ_AIDK01000001
p2969
S'PRJNA200029'
p2970
sVNZ_JH636841
p2971
S'PRJNA200034'
p2972
sVNZ_AMWV01000042
p2973
S'PRJNA201365'
p2974
sVNZ_AWWY01000321
p2975
S'PRJNA222909'
p2976
sVNC_011312
p2977
S'59251'
p2978
sVNZ_AWIZ01000051
p2979
S'PRJNA224116'
p2980
sVNZ_GG774555
p2981
S'PRJNA54327'
p2982
sVNZ_KB662027
p2983
S'195207'
p2984
sVNZ_JH377551
p2985
S'181608'
p2986
sVNZ_KB662024
p2987
S'195207'
p2988
sVNZ_AWHV01000010
p2989
S'PRJNA224116'
p2990
sVNZ_AMBT01000016
p2991
S'PRJNA190522'
p2992
sVNZ_AXNS01000031
p2993
S'PRJNA224116'
p2994
sVNZ_AXNS01000036
p2995
S'PRJNA224116'
p2996
sVNZ_AWHZ01000339
p2997
S'PRJNA224116'
p2998
sVNZ_JH377415
p2999
S'181607'
p3000
sVNZ_GL988568
p3001
S'181559'
p3002
sVNZ_JH973917
p3003
S'181737'
p3004
sVNZ_AHGD01000010
p3005
S'PRJNA190314'
p3006
sVNZ_AHGD01000016
p3007
S'PRJNA190314'
p3008
sVNZ_AHGD01000017
p3009
S'PRJNA190314'
p3010
sVNZ_AWKT01000062
p3011
S'PRJNA224116'
p3012
sVNZ_KB661918
p3013
S'195234'
p3014
sVNZ_AWMJ01000010
p3015
S'PRJNA224116'
p3016
sVNZ_AJYK01000054
p3017
S'PRJNA200153'
p3018
sVNZ_AWNC01000212
p3019
S'PRJNA224116'
p3020
sVNZ_GL988763
p3021
S'181560'
p3022
sVNZ_GL988762
p3023
S'181560'
p3024
sVNZ_AHGA01000005
p3025
S'PRJNA190314'
p3026
sVNZ_GL988767
p3027
S'181560'
p3028
sVNZ_AMWR01000096
p3029
S'PRJNA201361'
p3030
sVNZ_AMWR01000095
p3031
S'PRJNA201361'
p3032
sVNZ_GL988764
p3033
S'181560'
p3034
sVNZ_AWNB01000106
p3035
S'PRJNA224116'
p3036
sVNZ_KB661597
p3037
S'195231'
p3038
sVNZ_AHGP01000034
p3039
S'PRJNA190314'
p3040
sVNZ_AHGP01000035
p3041
S'PRJNA190314'
p3042
sVNZ_AWJS01000018
p3043
S'PRJNA224116'
p3044
sVNZ_KB661598
p3045
S'195231'
p3046
sVNZ_AWHG01000104
p3047
S'PRJNA224116'
p3048
sVNZ_AEZC01000025
p3049
S'PRJNA80489'
p3050
sVNZ_KB662154
p3051
S'195232'
p3052
sVNZ_AMWT01000070
p3053
S'PRJNA201363'
p3054
sVNZ_AWLB01000466
p3055
S'PRJNA224116'
p3056
sVNZ_AWJM01000087
p3057
S'PRJNA224116'
p3058
sVNZ_AMBS01000021
p3059
S'PRJNA190521'
p3060
sVNZ_AMWU01000096
p3061
S'PRJNA201364'
p3062
sVNZ_AMWU01000097
p3063
S'PRJNA201364'
p3064
sVNZ_AWMJ01000121
p3065
S'PRJNA224116'
p3066
sVNZ_GL989441
p3067
S'181564'
p3068
sVNZ_JH966630
p3069
S'181723'
p3070
sVNZ_AIDC01000136
p3071
S'PRJNA200022'
p3072
sVNZ_JH966634
p3073
S'181723'
p3074
sVNZ_AWNC01000369
p3075
S'PRJNA224116'
p3076
sVNZ_AXNJ01000031
p3077
S'PRJNA224116'
p3078
sVNZ_KB661124
p3079
S'195203'
p3080
sVNZ_JH967169
p3081
S'181726'
p3082
sVNZ_KB661683
p3083
S'195215'
p3084
sVNZ_KB661175
p3085
S'195203'
p3086
sVNZ_KB661176
p3087
S'195203'
p3088
sVNZ_AWJP01000035
p3089
S'PRJNA224116'
p3090
sVNZ_AHGM01000012
p3091
S'PRJNA190314'
p3092
sVNZ_AWLI01000025
p3093
S'PRJNA224116'
p3094
sVNZ_ANHS01000075
p3095
S'PRJNA198283'
p3096
sVNZ_JH942676
p3097
S'181792'
p3098
sVNZ_JH942672
p3099
S'181792'
p3100
sVNZ_AELJ01000019
p3101
S'PRJNA190214'
p3102
sVNZ_JH967766
p3103
S'181731'
p3104
sVNZ_AELJ01000012
p3105
S'PRJNA190214'
p3106
sVNZ_AWMO01000025
p3107
S'PRJNA224116'
p3108
sVNZ_AWIC01000207
p3109
S'PRJNA224116'
p3110
sVNZ_JH942415
p3111
S'181803'
p3112
sVNZ_CH724141
p3113
S'54235'
p3114
sVNZ_JH942410
p3115
S'181803'
p3116
sVNZ_JH942413
p3117
S'181803'
p3118
sVNZ_ANHS01000095
p3119
S'PRJNA198283'
p3120
sVNZ_AWLI01000158
p3121
S'PRJNA224116'
p3122
sVNZ_AWIP01000056
p3123
S'PRJNA224116'
p3124
sVNZ_AJZK01000016
p3125
S'PRJNA200178'
p3126
sVNZ_JH724788
p3127
S'181793'
p3128
sVNZ_JFGR01000015
p3129
S'PRJNA224116'
p3130
sVNZ_JFGR01000014
p3131
S'PRJNA224116'
p3132
sVNZ_KB661778
p3133
S'195212'
p3134
sVNZ_AWNF01000213
p3135
S'PRJNA224116'
p3136
sVNZ_GL988118
p3137
S'181557'
p3138
sVNZ_AJZE01000044
p3139
S'PRJNA200172'
p3140
sVNZ_KB661578
p3141
S'195231'
p3142
sVNZ_KB454199
p3143
S'183741'
p3144
sVNZ_AWKC01000239
p3145
S'PRJNA224116'
p3146
sVNZ_KB454369
p3147
S'183743'
p3148
sVNZ_KB454368
p3149
S'183743'
p3150
sVNZ_KB454366
p3151
S'183743'
p3152
sVNZ_AXNQ01000030
p3153
S'PRJNA224116'
p3154
sVNZ_JH942072
p3155
S'181795'
p3156
sVNZ_AWIS01000109
p3157
S'PRJNA224116'
p3158
sVNZ_JH942071
p3159
S'181795'
p3160
sVNZ_AWWY01000054
p3161
S'PRJNA222909'
p3162
sVNZ_AWWY01000052
p3163
S'PRJNA222909'
p3164
sVNZ_AWWY01000053
p3165
S'PRJNA222909'
p3166
sVNZ_AWKV01000080
p3167
S'PRJNA224116'
p3168
sVNZ_AWJY01000215
p3169
S'PRJNA224116'
p3170
sVNZ_AWIB01000034
p3171
S'PRJNA224116'
p3172
sVNZ_BAVK01000023
p3173
S'PRJNA224116'
p3174
sVNZ_KB454100
p3175
S'PRJNA183744'
p3176
sVNZ_AHGL01000024
p3177
S'PRJNA190314'
p3178
sVNZ_AYNM01000144
p3179
S'PRJNA224116'
p3180
sVNZ_JH942302
p3181
S'181790'
p3182
sVNZ_AWHH01000001
p3183
S'PRJNA224116'
p3184
sVNZ_KB661919
p3185
S'195234'
p3186
sVNZ_AWIV01000059
p3187
S'PRJNA224116'
p3188
sVNZ_AWKU01000105
p3189
S'PRJNA224116'
p3190
sVNZ_JH942091
p3191
S'181795'
p3192
sVNZ_JH942092
p3193
S'181795'
p3194
sVNZ_DS178206
p3195
S'54587'
p3196
sVNZ_JH942096
p3197
S'181795'
p3198
sVNZ_AMWS01000093
p3199
S'PRJNA201362'
p3200
sVNZ_AYOM01000194
p3201
S'PRJNA224116'
p3202
sVNZ_AXNM01000018
p3203
S'PRJNA224116'
p3204
sVNZ_JH724675
p3205
S'181789'
p3206
sVNZ_JH724673
p3207
S'181789'
p3208
sVNZ_AIDG01000061
p3209
S'PRJNA200026'
p3210
sVNZ_KB453977
p3211
S'183746'
p3212
sVNZ_KB453975
p3213
S'183746'
p3214
sVNZ_AHGO01000049
p3215
S'PRJNA190314'
p3216
sVNZ_KB453971
p3217
S'183746'
p3218
sVNZ_AWND01000125
p3219
S'PRJNA224116'
p3220
sVNZ_GL988760
p3221
S'181560'
p3222
sVNZ_AWIB01000458
p3223
S'PRJNA224116'
p3224
sVNZ_JH976196
p3225
S'181739'
p3226
sVNZ_JH976195
p3227
S'181739'
p3228
sVNZ_JH976193
p3229
S'181739'
p3230
sVNZ_BAVF01000057
p3231
S'PRJNA224116'
p3232
sVNZ_AJZC01000062
p3233
S'PRJNA200171'
p3234
sVNZ_AVOO01000099
p3235
S'PRJNA220563'
p3236
sVNZ_JH377593
p3237
S'181608'
p3238
sVNZ_ANNM01000109
p3239
S'PRJNA201368'
p3240
sVNZ_AHTI01000123
p3241
S'PRJNA200006'
p3242
sVNZ_AJZC01000248
p3243
S'PRJNA200171'
p3244
sVNZ_AJYS01000122
p3245
S'PRJNA200161'
p3246
sVNZ_AJZC01000247
p3247
S'PRJNA200171'
p3248
sVNZ_AJYS01000056
p3249
S'PRJNA200161'
p3250
sVNZ_KB453754
p3251
S'183747'
p3252
sVNZ_JH941353
p3253
S'181800'
p3254
sVNZ_KB659985
p3255
S'PRJNA199932'
p3256
sVNZ_AWIM01000065
p3257
S'PRJNA224116'
p3258
sVNZ_JH941358
p3259
S'181800'
p3260
sVNZ_AWWL01000155
p3261
S'PRJNA222908'
p3262
sVNZ_GG774581
p3263
S'PRJNA54571'
p3264
sVNZ_GG774580
p3265
S'PRJNA54571'
p3266
sVNZ_AWHK01000026
p3267
S'PRJNA224116'
p3268
sVNZ_GG774582
p3269
S'PRJNA54571'
p3270
sVNZ_JH377630
p3271
S'181606'
p3272
sVNZ_AJZB01000074
p3273
S'PRJNA200170'
p3274
sVNZ_AJZB01000073
p3275
S'PRJNA200170'
p3276
sVNZ_JH941756
p3277
S'181794'
p3278
sVNZ_AJYT01000071
p3279
S'PRJNA200162'
p3280
sVNZ_AWKR01000037
p3281
S'PRJNA224116'
p3282
sVNZ_AWIU01000075
p3283
S'PRJNA224116'
p3284
sVNZ_AWKB01000136
p3285
S'PRJNA224116'
p3286
sVNZ_JH974069
p3287
S'181734'
p3288
sVNZ_KB663522
p3289
S'195211'
p3290
sVNZ_AWLB01000121
p3291
S'PRJNA224116'
p3292
sVNZ_GG774560
p3293
S'PRJNA54327'
p3294
sVNZ_DS179935
p3295
S'54593'
p3296
sVNZ_KB661595
p3297
S'195231'
p3298
sVNZ_JADA01000016
p3299
S'PRJNA224116'
p3300
sVNZ_GL988781
p3301
S'181560'
p3302
sVNZ_JH377495
p3303
S'181608'
p3304
sVNZ_AWKQ01000171
p3305
S'PRJNA224116'
p3306
sVNZ_JH377761
p3307
S'181605'
p3308
sVNZ_JH967647
p3309
S'181729'
p3310
sVNZ_BAVI01000023
p3311
S'PRJNA224116'
p3312
sVNZ_AWLH01000161
p3313
S'PRJNA224116'
p3314
sVNZ_JH976178
p3315
S'181739'
p3316
sVNZ_JH976179
p3317
S'181739'
p3318
sVNZ_AHFX01000013
p3319
S'PRJNA190314'
p3320
sVNZ_AHFX01000010
p3321
S'PRJNA190314'
p3322
sVNZ_KB662326
p3323
S'195230'
p3324
sVNZ_KB662327
p3325
S'195230'
p3326
sVNZ_KB662328
p3327
S'195230'
p3328
sVNZ_AMWS01000011
p3329
S'PRJNA201362'
p3330
sVNZ_AWJI01000095
p3331
S'PRJNA224116'
p3332
sVNZ_JH974116
p3333
S'181740'
p3334
sVNZ_AMWV01000072
p3335
S'PRJNA201365'
p3336
sVNZ_JH973712
p3337
S'181735'
p3338
sVNZ_AYNL01000012
p3339
S'PRJNA224116'
p3340
sVNZ_DS179742
p3341
S'54329'
p3342
sVNZ_AWLH01000298
p3343
S'PRJNA224116'
p3344
sVNZ_JH973488
p3345
S'181733'
p3346
sVNZ_AWKI01000032
p3347
S'PRJNA224116'
p3348
sVNZ_AWLM01000045
p3349
S'PRJNA224116'
p3350
sVNZ_AHGF01000001
p3351
S'PRJNA190314'
p3352
sVNZ_AHGF01000003
p3353
S'PRJNA190314'
p3354
sVNZ_AWIZ01000061
p3355
S'PRJNA224116'
p3356
sVNZ_KB662030
p3357
S'195207'
p3358
sVNZ_AHGF01000004
p3359
S'PRJNA190314'
p3360
sVNZ_AHGF01000007
p3361
S'PRJNA190314'
p3362
sVNZ_KB662145
p3363
S'195232'
p3364
sVNZ_AHGB01000064
p3365
S'PRJNA190314'
p3366
sVNZ_AYNN01000077
p3367
S'PRJNA224116'
p3368
sVNZ_AWMI01000031
p3369
S'PRJNA224116'
p3370
sVNZ_KB662148
p3371
S'195232'
p3372
sVNZ_KB662149
p3373
S'195232'
p3374
sVNZ_AHGB01000062
p3375
S'PRJNA190314'
p3376
sVNZ_KB662594
p3377
S'195227'
p3378
sVNZ_AHGG01000015
p3379
S'PRJNA190314'
p3380
sVNZ_AJZM01000357
p3381
S'PRJNA200180'
p3382
sVNZ_AMQV01000176
p3383
S'PRJNA199800'
p3384
sVNZ_GL988570
p3385
S'181559'
p3386
sVNZ_AWKU01000011
p3387
S'PRJNA224116'
p3388
sVNZ_AEZB01000011
p3389
S'PRJNA200508'
p3390
sVNZ_AEZA01000076
p3391
S'PRJNA200507'
p3392
sVNZ_DS265255
p3393
S'54487'
p3394
sVNZ_AWIX01000268
p3395
S'PRJNA224116'
p3396
sVNZ_AHGP01000046
p3397
S'PRJNA190314'
p3398
sVNZ_AHGP01000049
p3399
S'PRJNA190314'
p3400
sVNZ_JPLV01000030
p3401
S'PRJNA224116'
p3402
sVNZ_GL989421
p3403
S'181564'
p3404
sVNZ_GL989420
p3405
S'181564'
p3406
sVNZ_GL989426
p3407
S'181564'
p3408
sVNZ_GL989425
p3409
S'181564'
p3410
sVNZ_AJZA01000428
p3411
S'PRJNA200169'
p3412
sVNZ_AMBS01000013
p3413
S'PRJNA190521'
p3414
sVNZ_GL989198
p3415
S'181563'
p3416
sVNZ_AMBS01000015
p3417
S'PRJNA190521'
p3418
sVNZ_AWLP01000596
p3419
S'PRJNA224116'
p3420
sVNZ_AWIR01000022
p3421
S'PRJNA224116'
p3422
sVNZ_JH966647
p3423
S'181723'
p3424
sVNZ_AXNJ01000029
p3425
S'PRJNA224116'
p3426
sVNZ_JH966645
p3427
S'181723'
p3428
sVNZ_JH966648
p3429
S'181723'
p3430
sVNZ_JH942246
p3431
S'181801'
p3432
sVNZ_AIDB01000082
p3433
S'PRJNA200021'
p3434
sVNZ_DS178142
p3435
S'54591'
p3436
sVNC_009457
p3437
S'PRJNA58425'
p3438
sVNZ_AHGM01000003
p3439
S'PRJNA190314'
p3440
sVNZ_AWIK01000026
p3441
S'PRJNA224116'
p3442
sVNZ_AWMB01000013
p3443
S'PRJNA224116'
p3444
sVNZ_JH967379
p3445
S'181727'
p3446
sVNZ_AHGM01000009
p3447
S'PRJNA190314'
p3448
sVNZ_KI601373
p3449
S'PRJNA230570'
p3450
sVNZ_AHGH01000002
p3451
S'PRJNA190314'
p3452
sVNZ_BAVJ01000022
p3453
S'PRJNA224116'
p3454
sVNZ_AHGC01000033
p3455
S'PRJNA190314'
p3456
sVNZ_AWIR01000119
p3457
S'PRJNA224116'
p3458
sVNZ_KB932157
p3459
S'PRJNA202774'
p3460
sVNZ_ASAH01000010
p3461
S'PRJNA203098'
p3462
sVNZ_AWMO01000031
p3463
S'PRJNA224116'
p3464
sVNZ_AWWY01000332
p3465
S'PRJNA222909'
p3466
sVNZ_JFGR01000009
p3467
S'PRJNA224116'
p3468
sVNZ_JFGR01000007
p3469
S'PRJNA224116'
p3470
sVNZ_JFGR01000005
p3471
S'PRJNA224116'
p3472
sVNZ_JFGR01000002
p3473
S'PRJNA224116'
p3474
sVNZ_JFGR01000001
p3475
S'PRJNA224116'
p3476
sVNC_022224
p3477
S'PRJNA217771'
p3478
sVNZ_AJZI01000218
p3479
S'PRJNA200176'
p3480
sVNZ_AHGB01000009
p3481
S'PRJNA190314'
p3482
sVNC_022223
p3483
S'PRJNA217771'
p3484
sVNZ_AWKN01000073
p3485
S'PRJNA224116'
p3486
sVNZ_AJYY01000105
p3487
S'PRJNA200167'
p3488
sVNZ_AWMB01000123
p3489
S'PRJNA224116'
p3490
sVNZ_AIDM01000061
p3491
S'PRJNA200031'
p3492
sVNZ_AIDM01000062
p3493
S'PRJNA200031'
p3494
sVNZ_KB454374
p3495
S'183743'
p3496
sVNZ_AXNQ01000007
p3497
S'PRJNA224116'
p3498
sVNZ_JH966918
p3499
S'181725'
p3500
sVNZ_AIDS01000031
p3501
S'PRJNA200037'
p3502
sVNZ_KB661682
p3503
S'195215'
p3504
sVNZ_AJYE01000339
p3505
S'PRJNA200147'
p3506
sVNZ_AWIE01000060
p3507
S'PRJNA224116'
p3508
sVNC_013456
p3509
S'41601'
p3510
sVNZ_KB454115
p3511
S'PRJNA183744'
p3512
sVNZ_AWLR01000214
p3513
S'PRJNA224116'
p3514
sVNZ_AWWY01000156
p3515
S'PRJNA222909'
p3516
sVNZ_KB454112
p3517
S'PRJNA183744'
p3518
sVNZ_AYNM01000153
p3519
S'PRJNA224116'
p3520
sVNZ_AWWL01000146
p3521
S'PRJNA222908'
p3522
sVNZ_KB454118
p3523
S'PRJNA183744'
p3524
sVNZ_DS178212
p3525
S'54587'
p3526
sVNZ_JH976079
p3527
S'181743'
p3528
sVNZ_AHTI01000209
p3529
S'PRJNA200006'
p3530
sVNZ_AWLD01000053
p3531
S'PRJNA224116'
p3532
sVNZ_AIDQ01000063
p3533
S'PRJNA200035'
p3534
sVNZ_JH967202
p3535
S'181726'
p3536
sVNZ_AJZI01000104
p3537
S'PRJNA200176'
p3538
sVNZ_JH724680
p3539
S'181789'
p3540
sVNZ_AWJH01000099
p3541
S'PRJNA224116'
p3542
sVNZ_AWMP01000001
p3543
S'PRJNA224116'
p3544
sVNZ_AWJZ01000220
p3545
S'PRJNA224116'
p3546
sVNZ_AJYU01000101
p3547
S'PRJNA200163'
p3548
sVNZ_AJYY01000164
p3549
S'PRJNA200167'
p3550
sVNZ_JH942421
p3551
S'181803'
p3552
sVNZ_AWJC01000548
p3553
S'PRJNA224116'
p3554
sVNZ_AJYS01000220
p3555
S'PRJNA200161'
p3556
sVNZ_AYOM01000167
p3557
S'PRJNA224116'
p3558
sVNZ_BAVF01000042
p3559
S'PRJNA224116'
p3560
sVNZ_AWLA01000114
p3561
S'PRJNA224116'
p3562
sVNZ_AWKW01000033
p3563
S'PRJNA224116'
p3564
sVNZ_AWIU01000031
p3565
S'PRJNA224116'
p3566
sVNZ_JH967361
p3567
S'181727'
p3568
sVNZ_AEZC01000243
p3569
S'PRJNA80489'
p3570
sVNZ_AJYS01000131
p3571
S'PRJNA200161'
p3572
sVNZ_AJYS01000135
p3573
S'PRJNA200161'
p3574
sVNZ_KB453740
p3575
S'183749'
p3576
sVNZ_KB453747
p3577
S'183749'
p3578
sVNZ_KB453749
p3579
S'183749'
p3580
sVNZ_AJYV01000164
p3581
S'PRJNA200164'
p3582
sVNZ_AJYV01000160
p3583
S'PRJNA200164'
p3584
sVNZ_AXNR01000043
p3585
S'PRJNA224116'
p3586
sVNZ_AWKX01000091
p3587
S'PRJNA224116'
p3588
sVNZ_AHFZ01000051
p3589
S'PRJNA190314'
p3590
sVNZ_AMBT01000026
p3591
S'PRJNA190522'
p3592
sVNZ_AMBT01000024
p3593
S'PRJNA190522'
p3594
sVNZ_ANNM01000006
p3595
S'PRJNA201368'
p3596
sVNZ_AHFZ01000057
p3597
S'PRJNA190314'
p3598
sVNZ_AJYW01000256
p3599
S'PRJNA200165'
p3600
sVNZ_ATFJ01000013
p3601
S'PRJNA210494'
p3602
sVNZ_AWMX01000126
p3603
S'PRJNA224116'
p3604
sVNZ_GG774578
p3605
S'PRJNA54571'
p3606
sVNZ_GG774579
p3607
S'PRJNA54571'
p3608
sVNZ_AWMV01000050
p3609
S'PRJNA224116'
p3610
sVNZ_KB663021
p3611
S'195219'
p3612
sVNZ_GL988901
p3613
S'181561'
p3614
sVNZ_GL988900
p3615
S'181561'
p3616
sVNZ_AWMH01000047
p3617
S'PRJNA224116'
p3618
sVNZ_AJZM01000039
p3619
S'PRJNA200180'
p3620
sVNZ_AWJI01000553
p3621
S'PRJNA224116'
p3622
sVNZ_JADA01000020
p3623
S'PRJNA224116'
p3624
sVNZ_JADA01000023
p3625
S'PRJNA224116'
p3626
sVNZ_JADA01000022
p3627
S'PRJNA224116'
p3628
sVNZ_GL988168
p3629
S'181557'
p3630
sVNZ_AMRZ01000007
p3631
S'PRJNA199808'
p3632
sVNZ_AJZQ01000022
p3633
S'PRJNA200184'
p3634
sVNZ_AMRZ01000003
p3635
S'PRJNA199808'
p3636
sVNZ_AMRZ01000001
p3637
S'PRJNA199808'
p3638
sVNZ_AJZG01000072
p3639
S'PRJNA200174'
p3640
sVNZ_AWMX01000387
p3641
S'PRJNA224116'
p3642
sVNZ_AMWU01000157
p3643
S'PRJNA201364'
p3644
sVNZ_AWJO01000490
p3645
S'PRJNA224116'
p3646
sVNZ_AJZB01000004
p3647
S'PRJNA200170'
p3648
sVNZ_AWLH01000337
p3649
S'PRJNA224116'
p3650
sVNZ_AMWT01000109
p3651
S'PRJNA201363'
p3652
sVNZ_AMWT01000108
p3653
S'PRJNA201363'
p3654
sVNZ_KB663150
p3655
S'195220'
p3656
sVNZ_AYNN01000041
p3657
S'PRJNA224116'
p3658
sVNZ_AIDK01000021
p3659
S'PRJNA200029'
p3660
sVNZ_JH973708
p3661
S'181735'
p3662
sVNZ_JH974120
p3663
S'181740'
p3664
sVNZ_CM001400
p3665
S'181711'
p3666
sVNZ_JH973707
p3667
S'181735'
p3668
sVNZ_KB662793
p3669
S'195223'
p3670
sVNZ_AHGF01000016
p3671
S'PRJNA190314'
p3672
sVNZ_AHGF01000017
p3673
S'PRJNA190314'
p3674
sVNZ_AHGF01000013
p3675
S'PRJNA190314'
p3676
sVNZ_AHGF01000010
p3677
S'PRJNA190314'
p3678
sVNZ_AWHX01000103
p3679
S'PRJNA224116'
p3680
sVNZ_KB662559
p3681
S'195226'
p3682
sVNZ_AHGI01000021
p3683
S'PRJNA190314'
p3684
sVNZ_AHGI01000022
p3685
S'PRJNA190314'
p3686
sVNZ_AHGF01000019
p3687
S'PRJNA190314'
p3688
sVNZ_AJZD01000132
p3689
S'PRJNA201499'
p3690
sVNZ_AWLV01000316
p3691
S'PRJNA224116'
p3692
sVNZ_AWKC01000108
p3693
S'PRJNA224116'
p3694
sVNZ_KB661200
p3695
S'195203'
p3696
sVNZ_AWLB01000245
p3697
S'PRJNA224116'
p3698
sVNZ_JH973560
p3699
S'181738'
p3700
sVNZ_AMWF01000060
p3701
S'PRJNA201360'
p3702
sVNZ_GL989505
p3703
S'181564'
p3704
sVNZ_GL989506
p3705
S'181564'
p3706
sVNZ_GL988580
p3707
S'181559'
p3708
sVNZ_AWMJ01000038
p3709
S'PRJNA224116'
p3710
sVNZ_AWMJ01000036
p3711
S'PRJNA224116'
p3712
sVNZ_AHGA01000069
p3713
S'PRJNA190314'
p3714
sVNZ_AJYO01000114
p3715
S'PRJNA200157'
p3716
sVNZ_JH967763
p3717
S'181731'
p3718
sVNZ_AHGA01000062
p3719
S'PRJNA190314'
p3720
sVNZ_AWLO01000015
p3721
S'PRJNA224116'
p3722
sVNZ_AJYZ01000064
p3723
S'PRJNA200168'
p3724
sVNZ_JH967832
p3725
S'181731'
p3726
sVNZ_AEZA01000061
p3727
S'PRJNA200507'
p3728
sVNZ_AWJX01000083
p3729
S'PRJNA224116'
p3730
sVNZ_AHGP01000050
p3731
S'PRJNA190314'
p3732
sVNZ_AWHG01000124
p3733
S'PRJNA224116'
p3734
sVNZ_AHGP01000052
p3735
S'PRJNA190314'
p3736
sVNZ_AHGP01000054
p3737
S'PRJNA190314'
p3738
sVNZ_AMWR01000057
p3739
S'PRJNA201361'
p3740
sVNZ_AMWR01000055
p3741
S'PRJNA201361'
p3742
sVNZ_JPLV01000006
p3743
S'PRJNA224116'
p3744
sVNZ_GL989439
p3745
S'181564'
p3746
sVNZ_AMBS01000004
p3747
S'PRJNA190521'
p3748
sVNZ_AWJD01000545
p3749
S'PRJNA224116'
p3750
sVNZ_AWKM01000177
p3751
S'PRJNA224116'
p3752
sVNZ_AWLX01000183
p3753
S'PRJNA224116'
p3754
sVNZ_JH966651
p3755
S'181723'
p3756
sVNZ_JH967515
p3757
S'181728'
p3758
sVNZ_JH942780
p3759
S'181802'
p3760
sVNZ_JH942782
p3761
S'181802'
p3762
sVNZ_AJZH01000106
p3763
S'PRJNA200175'
p3764
sVNZ_DS178137
p3765
S'54591'
p3766
sVNZ_AWMZ01000301
p3767
S'PRJNA224116'
p3768
sVNZ_JH942789
p3769
S'181802'
p3770
sVNZ_JH967516
p3771
S'181728'
p3772
sVNZ_BAVF01000028
p3773
S'PRJNA224116'
p3774
sVNZ_JH942652
p3775
S'181792'
p3776
sVNZ_JH942653
p3777
S'181792'
p3778
sVNZ_AWMH01000103
p3779
S'PRJNA224116'
p3780
sVNZ_JH967741
p3781
S'181730'
p3782
sVNZ_JH967742
p3783
S'181730'
p3784
sVNZ_ASAH01000007
p3785
S'PRJNA203098'
p3786
sVNZ_AOCL01000005
p3787
S'PRJNA229950'
p3788
sVNZ_AJYT01000127
p3789
S'PRJNA200162'
p3790
sVNZ_AELJ01000077
p3791
S'PRJNA190214'
p3792
sVNZ_KB454297
p3793
S'183742'
p3794
sVNZ_JH966833
p3795
S'181725'
p3796
sVNZ_AWME01000064
p3797
S'PRJNA224116'
p3798
sVNZ_AWKP01000007
p3799
S'PRJNA224116'
p3800
sVNZ_JH967525
p3801
S'181728'
p3802
sVNZ_JH967526
p3803
S'181728'
p3804
sVNZ_DS178043
p3805
S'54589'
p3806
sVNZ_AHGB01000018
p3807
S'PRJNA190314'
p3808
sVNZ_AHGC01000128
p3809
S'PRJNA190314'
p3810
sVNZ_AHGB01000012
p3811
S'PRJNA190314'
p3812
sVNZ_JH724792
p3813
S'181793'
p3814
sVNZ_KB454349
p3815
S'183742'
p3816
sVNZ_AIDS01000023
p3817
S'PRJNA200037'
p3818
sVNZ_JH942250
p3819
S'181801'
p3820
sVNZ_JH942322
p3821
S'181790'
p3822
sVNZ_AWJT01000367
p3823
S'PRJNA224116'
p3824
sVNZ_AJZC01000065
p3825
S'PRJNA200171'
p3826
sVNZ_JH942327
p3827
S'181790'
p3828
sVNZ_AWWY01000146
p3829
S'PRJNA222909'
p3830
sVNZ_JH942325
p3831
S'181790'
p3832
sVNZ_AWWL01000154
p3833
S'PRJNA222908'
p3834
sVNZ_AJYW01000061
p3835
S'PRJNA200165'
p3836
sVNZ_DF196823
p3837
S'PRJNA231643'
p3838
sVNZ_JH967237
p3839
S'181726'
p3840
sVNZ_JH967236
p3841
S'181726'
p3842
sVNZ_JH967230
p3843
S'181726'
p3844
sVNZ_KB453958
p3845
S'183746'
p3846
sVNZ_KB453951
p3847
S'183746'
p3848
sVNZ_KB453950
p3849
S'183746'
p3850
sVNZ_AIDG01000003
p3851
S'PRJNA200026'
p3852
sVNZ_KB453957
p3853
S'183746'
p3854
sVNZ_AELI01000092
p3855
S'PRJNA190213'
p3856
sVNZ_AWKJ01000077
p3857
S'PRJNA224116'
p3858
sVNZ_AJYU01000006
p3859
S'PRJNA200163'
p3860
sVNZ_AWIQ01000106
p3861
S'PRJNA224116'
p3862
sVNZ_AWJW01000026
p3863
S'PRJNA224116'
p3864
sVNZ_AJZP01000342
p3865
S'PRJNA200183'
p3866
sVNZ_JH636694
p3867
S'PRJNA200025'
p3868
sVNZ_AWHJ01000107
p3869
S'PRJNA224116'
p3870
sVNZ_AXNL01000183
p3871
S'PRJNA224116'
p3872
sVNZ_AMWF01000167
p3873
S'PRJNA201360'
p3874
sVNZ_AWHP01000174
p3875
S'PRJNA224116'
p3876
sVNZ_AMWF01000165
p3877
S'PRJNA201360'
p3878
sVNZ_AWIU01000023
p3879
S'PRJNA224116'
p3880
sVNZ_AYOM01000085
p3881
S'PRJNA224116'
p3882
sVNZ_AWMP01000102
p3883
S'PRJNA224116'
p3884
sVNZ_AIDS01000008
p3885
S'PRJNA200037'
p3886
sVNZ_AWMV01000220
p3887
S'PRJNA224116'
p3888
sVNZ_AWHS01000173
p3889
S'PRJNA224116'
p3890
sVNZ_KB453778
p3891
S'183747'
p3892
sVNZ_AWJY01000019
p3893
S'PRJNA224116'
p3894
sVNZ_JH941335
p3895
S'181800'
p3896
sVNZ_JH941333
p3897
S'181800'
p3898
sVNZ_AWLQ01000007
p3899
S'PRJNA224116'
p3900
sVNZ_AWLK01000360
p3901
S'PRJNA224116'
p3902
sVNZ_AHFZ01000047
p3903
S'PRJNA190314'
p3904
sVNZ_ANNM01000012
p3905
S'PRJNA201368'
p3906
sVNZ_ANNM01000013
p3907
S'PRJNA201368'
p3908
sVNC_011753
p3909
S'59353'
p3910
sVNZ_AHFZ01000049
p3911
S'PRJNA190314'
p3912
sVNZ_AWIG01000001
p3913
S'PRJNA224116'
p3914
sVNZ_AWLL01000182
p3915
S'PRJNA224116'
p3916
sVNZ_ATWU01000030
p3917
S'PRJNA224116'
p3918
sVNZ_AIDH01000111
p3919
S'PRJNA175805'
p3920
sVNZ_AMWT01000062
p3921
S'PRJNA201363'
p3922
sVNZ_AMWT01000064
p3923
S'PRJNA201363'
p3924
sVNZ_AIDH01000118
p3925
S'PRJNA175805'
p3926
sVNZ_GL988171
p3927
S'181557'
p3928
sVNZ_JH974049
p3929
S'181734'
p3930
sVNZ_AWHR01000157
p3931
S'PRJNA224116'
p3932
sVNZ_AJYP01000253
p3933
S'PRJNA200158'
p3934
sVNZ_AWKQ01000116
p3935
S'PRJNA224116'
p3936
sVNZ_AJYW01000287
p3937
S'PRJNA200165'
p3938
sVNZ_AMRZ01000014
p3939
S'PRJNA199808'
p3940
sVNZ_AJZA01000267
p3941
S'PRJNA200169'
p3942
sVNZ_AWKF01000152
p3943
S'PRJNA224116'
p3944
sVNZ_AWJR01000161
p3945
S'PRJNA224116'
p3946
sVNZ_AJZG01000040
p3947
S'PRJNA200174'
p3948
sVNZ_AMRZ01000013
p3949
S'PRJNA199808'
p3950
sVNZ_BAVI01000004
p3951
S'PRJNA224116'
p3952
sVNZ_KB663305
p3953
S'195218'
p3954
sVNZ_AHFX01000037
p3955
S'PRJNA190314'
p3956
sVNC_004459
p3957
S'62909'
p3958
sVNZ_KB663301
p3959
S'195218'
p3960
sVNZ_KB663303
p3961
S'195218'
p3962
sVNZ_KB663169
p3963
S'195220'
p3964
sVNZ_AHGA01000022
p3965
S'PRJNA190314'
p3966
sVNZ_BAVI01000008
p3967
S'PRJNA224116'
p3968
sVNZ_JH974132
p3969
S'181740'
p3970
sVNZ_JH974133
p3971
S'181740'
p3972
sVNZ_JH974130
p3973
S'181740'
p3974
sVNZ_JH974136
p3975
S'181740'
p3976
sVNZ_AWID01000105
p3977
S'PRJNA224116'
p3978
sVNZ_KB663498
p3979
S'195214'
p3980
sVNZ_AWMU01000242
p3981
S'PRJNA224116'
p3982
sVNZ_AWNA01000225
p3983
S'PRJNA224116'
p3984
sVNZ_AWHR01000020
p3985
S'PRJNA224116'
p3986
sVNZ_AWKI01000010
p3987
S'PRJNA224116'
p3988
sVNZ_JH966249
p3989
S'181722'
p3990
sVNZ_AWIO01000174
p3991
S'PRJNA224116'
p3992
sVNZ_KB662543
p3993
S'195226'
p3994
sVNZ_KB662544
p3995
S'195226'
p3996
sVNZ_AHGI01000010
p3997
S'PRJNA190314'
p3998
sVNZ_AHGI01000013
p3999
S'PRJNA190314'
p4000
sVNZ_AHFZ01000007
p4001
S'PRJNA190314'
p4002
sVNZ_KB662019
p4003
S'195207'
p4004
sVNZ_KB661896
p4005
S'195228'
p4006
sVNZ_AMBS01000018
p4007
S'PRJNA190521'
p4008
sVNZ_AWLZ01000006
p4009
S'PRJNA224116'
p4010
sVNZ_AHFY01000034
p4011
S'PRJNA190314'
p4012
sVNZ_KB662761
p4013
S'195223'
p4014
sVNZ_AHFY01000036
p4015
S'PRJNA190314'
p4016
sVNZ_AHFY01000037
p4017
S'PRJNA190314'
p4018
sVNZ_AHFY01000030
p4019
S'PRJNA190314'
p4020
sVNZ_AHFY01000032
p4021
S'PRJNA190314'
p4022
sVNZ_AXNR01000063
p4023
S'PRJNA224116'
p4024
sVNZ_BAOH01000084
p4025
S'PRJNA203327'
p4026
sVNZ_KB661943
p4027
S'195234'
p4028
sVNZ_AWLN01000113
p4029
S'PRJNA224116'
p4030
sVNZ_GL988756
p4031
S'181560'
p4032
sVNZ_KB661946
p4033
S'195234'
p4034
sVNZ_GL988759
p4035
S'181560'
p4036
sVNZ_AWNF01000085
p4037
S'PRJNA224116'
p4038
sVNZ_AVOO01000025
p4039
S'PRJNA220563'
p4040
sVNZ_JH967828
p4041
S'181731'
p4042
sVNZ_AHGI01000033
p4043
S'PRJNA190314'
p4044
sVNZ_AWKP01000133
p4045
S'PRJNA224116'
p4046
sVNZ_KB662306
p4047
S'195230'
p4048
sVNZ_JH967825
p4049
S'181731'
p4050
sVNZ_KB662304
p4051
S'195230'
p4052
sVNZ_KB662305
p4053
S'195230'
p4054
sVNZ_AHGN01000001
p4055
S'PRJNA190314'
p4056
sVNZ_AEZC01000079
p4057
S'PRJNA80489'
p4058
sVNZ_AWLJ01000372
p4059
S'PRJNA224116'
p4060
sVNZ_JPLV01000012
p4061
S'PRJNA224116'
p4062
sVNZ_AHGN01000004
p4063
S'PRJNA190314'
p4064
sVNZ_AHGN01000007
p4065
S'PRJNA190314'
p4066
sVNZ_AHGN01000009
p4067
S'PRJNA190314'
p4068
sVNZ_AEZC01000076
p4069
S'PRJNA80489'
p4070
sVNZ_AWLV01000234
p4071
S'PRJNA224116'
p4072
sVNZ_JH973814
p4073
S'181736'
p4074
sVNZ_JH973815
p4075
S'181736'
p4076
sVNZ_JH973813
p4077
S'181736'
p4078
sVNZ_AWKB01000460
p4079
S'PRJNA224116'
p4080
sVNZ_GL989269
p4081
S'181563'
p4082
sVNZ_AELJ01000062
p4083
S'PRJNA190214'
p4084
sVNZ_AIDD01000066
p4085
S'PRJNA200023'
p4086
sVNZ_AMBR01000006
p4087
S'PRJNA190520'
p4088
sVNZ_AMBR01000005
p4089
S'PRJNA190520'
p4090
sVNZ_AWJJ01000569
p4091
S'PRJNA224116'
p4092
sVNZ_AMBR01000002
p4093
S'PRJNA190520'
p4094
sVNZ_AWLU01000090
p4095
S'PRJNA224116'
p4096
sVNZ_JH724674
p4097
S'181789'
p4098
sVNC_016628
p4099
S'82347'
p4100
sVNZ_AJYY01000058
p4101
S'PRJNA200167'
p4102
sVNZ_AWJP01000067
p4103
S'PRJNA224116'
p4104
sVNZ_AJYU01000139
p4105
S'PRJNA200163'
p4106
sVNZ_AMWV01000013
p4107
S'PRJNA201365'
p4108
sVNZ_AWLW01000075
p4109
S'PRJNA224116'
p4110
sVNZ_AEZC01000106
p4111
S'PRJNA80489'
p4112
sVNZ_JH967687
p4113
S'181730'
p4114
sVNZ_AWHZ01000166
p4115
S'PRJNA224116'
p4116
sVNZ_JH377958
p4117
S'181603'
p4118
sVNZ_JH967688
p4119
S'181730'
p4120
sVNZ_AWME01000075
p4121
S'PRJNA224116'
p4122
sVNZ_GL989247
p4123
S'181563'
p4124
sVNZ_AMQR01000176
p4125
S'PRJNA199797'
p4126
sVNZ_AWIH01000251
p4127
S'PRJNA224116'
p4128
sVNZ_AJZD01000218
p4129
S'PRJNA201499'
p4130
sVNZ_AWHL01000036
p4131
S'PRJNA224116'
p4132
sVNZ_GL989249
p4133
S'181563'
p4134
sVNZ_KB932177
p4135
S'PRJNA202774'
p4136
sVNZ_AWMO01000011
p4137
S'PRJNA224116'
p4138
sVNZ_AELJ01000043
p4139
S'PRJNA190214'
p4140
sVNZ_AMWT01000115
p4141
S'PRJNA201363'
p4142
sVNZ_JH724773
p4143
S'181793'
p4144
sVNZ_AJYZ01000102
p4145
S'PRJNA200168'
p4146
sVNZ_KB454284
p4147
S'183742'
p4148
sVNZ_KB454285
p4149
S'183742'
p4150
sVNZ_JH942689
p4151
S'181792'
p4152
sVNZ_JH967537
p4153
S'181728'
p4154
sVNZ_AWMF01000076
p4155
S'PRJNA224116'
p4156
sVNZ_AWJL01000036
p4157
S'PRJNA224116'
p4158
sVNZ_GL989611
p4159
S'182021'
p4160
sVNZ_AJZE01000072
p4161
S'PRJNA200172'
p4162
sVNZ_AIDK01000055
p4163
S'PRJNA200029'
p4164
sVNZ_AWKN01000052
p4165
S'PRJNA224116'
p4166
sVNZ_DS179501
p4167
S'54457'
p4168
sVNZ_AHGC01000136
p4169
S'PRJNA190314'
p4170
sVNZ_JH724512
p4171
S'181804'
p4172
sVNZ_JH724511
p4173
S'181804'
p4174
sVNZ_AXNQ01000060
p4175
S'PRJNA224116'
p4176
sVNZ_AWHP01000015
p4177
S'PRJNA224116'
p4178
sVNZ_AWMB01000108
p4179
S'PRJNA224116'
p4180
sVNZ_JH724518
p4181
S'181804'
p4182
sVNZ_AWLJ01000088
p4183
S'PRJNA224116'
p4184
sVNZ_JH942229
p4185
S'181801'
p4186
sVNZ_ANHS01000138
p4187
S'PRJNA198283'
p4188
sVNZ_DF196819
p4189
S'PRJNA231643'
p4190
sVNZ_AWIV01000061
p4191
S'PRJNA224116'
p4192
sVNZ_AKXW01000019
p4193
S'PRJNA199005'
p4194
sVNZ_JH967229
p4195
S'181726'
p4196
sVNZ_AJZI01000162
p4197
S'PRJNA200176'
p4198
sVNZ_AWLF01000227
p4199
S'PRJNA224116'
p4200
sVNZ_KB453948
p4201
S'183746'
p4202
sVNZ_AIDC01000193
p4203
S'PRJNA200022'
p4204
sVNZ_KB661631
p4205
S'195215'
p4206
sVNZ_KB661630
p4207
S'195215'
p4208
sVNZ_AMWW01000113
p4209
S'PRJNA201366'
p4210
sVNZ_AMWW01000112
p4211
S'PRJNA201366'
p4212
sVNZ_AHGO01000013
p4213
S'PRJNA190314'
p4214
sVNZ_AYNM01000089
p4215
S'PRJNA224116'
p4216
sVNZ_AHGO01000015
p4217
S'PRJNA190314'
p4218
sVNZ_CH724172
p4219
S'54239'
p4220
sVNZ_AHGO01000019
p4221
S'PRJNA190314'
p4222
sVNZ_CH724171
p4223
S'54239'
p4224
sVNZ_AYNM01000084
p4225
S'PRJNA224116'
p4226
sVNZ_JH724429
p4227
S'181797'
p4228
sVNZ_JH724428
p4229
S'181797'
p4230
sVNZ_JH941231
p4231
S'181807'
p4232
sVNZ_JH941232
p4233
S'181807'
p4234
sVNZ_AWMR01000065
p4235
S'PRJNA224116'
p4236
sVNZ_AWIQ01000179
p4237
S'PRJNA224116'
p4238
sVNZ_AWJU01000224
p4239
S'PRJNA224116'
p4240
sVNZ_AWLA01000173
p4241
S'PRJNA224116'
p4242
sVNZ_AVOO01000065
p4243
S'PRJNA220563'
p4244
sVNC_004603
p4245
S'57969'
p4246
sVNZ_JH941831
p4247
S'181805'
p4248
sVNZ_AWKZ01000036
p4249
S'PRJNA224116'
p4250
sVNZ_JH941834
p4251
S'181805'
p4252
sVNZ_AWMG01000201
p4253
S'PRJNA224116'
p4254
sVNZ_AWIM01000018
p4255
S'PRJNA224116'
p4256
sVNZ_AWIT01000053
p4257
S'PRJNA224116'
p4258
sVNZ_AWHS01000182
p4259
S'PRJNA224116'
p4260
sVNZ_AWHU01000035
p4261
S'PRJNA224116'
p4262
sVNZ_AWMW01000066
p4263
S'PRJNA224116'
p4264
sVNZ_AWIM01000015
p4265
S'PRJNA224116'
p4266
sVNZ_JH941307
p4267
S'181800'
p4268
sVNZ_AWJY01000004
p4269
S'PRJNA224116'
p4270
sVNC_011186
p4271
S'58907'
p4272
sVNZ_JH377447
p4273
S'181608'
p4274
sVNC_011184
p4275
S'58907'
p4276
sVNC_011185
p4277
S'58907'
p4278
sVNZ_AYNN01000130
p4279
S'PRJNA224116'
p4280
sVNZ_AMBT01000009
p4281
S'PRJNA190522'
p4282
sVNZ_ANNM01000027
p4283
S'PRJNA201368'
p4284
sVNC_011744
p4285
S'59353'
p4286
sVNZ_JH942113
p4287
S'181795'
p4288
sVNZ_AWIG01000018
p4289
S'PRJNA224116'
p4290
sVNZ_AHFZ01000034
p4291
S'PRJNA190314'
p4292
sVNZ_AMBT01000003
p4293
S'PRJNA190522'
p4294
sVNZ_AJZH01000118
p4295
S'PRJNA200175'
p4296
sVNZ_AJYI01000017
p4297
S'PRJNA200151'
p4298
sVNZ_AWMV01000101
p4299
S'PRJNA224116'
p4300
sVNZ_KB454114
p4301
S'PRJNA183744'
p4302
sVNZ_JH377687
p4303
S'181606'
p4304
sVNZ_AHGQ01000036
p4305
S'PRJNA190314'
p4306
sVNZ_AWLC01000112
p4307
S'PRJNA224116'
p4308
sVNZ_GG774556
p4309
S'PRJNA54327'
p4310
sVNZ_GG774557
p4311
S'PRJNA54327'
p4312
sVNZ_CH902613
p4313
S'54271'
p4314
sVNZ_AWLC01000117
p4315
S'PRJNA224116'
p4316
sVNZ_AWMY01000060
p4317
S'PRJNA224116'
p4318
sVNZ_GG774558
p4319
S'PRJNA54327'
p4320
sVNZ_GG774559
p4321
S'PRJNA54327'
p4322
sVNZ_AWMH01000024
p4323
S'PRJNA224116'
p4324
sVNZ_AHGQ01000039
p4325
S'PRJNA190314'
p4326
sVNZ_AWMA01000271
p4327
S'PRJNA224116'
p4328
sVNZ_CM001799
p4329
S'PRJNA199917'
p4330
sVNZ_JPLU01000014
p4331
S'PRJNA224116'
p4332
sVNZ_JH636788
p4333
S'PRJNA200026'
p4334
sVNZ_JPLU01000013
p4335
S'PRJNA224116'
p4336
sVNZ_AWIB01000313
p4337
S'PRJNA224116'
p4338
sVNZ_AMRZ01000021
p4339
S'PRJNA199808'
p4340
sVNZ_AHGC01000112
p4341
S'PRJNA190314'
p4342
sVNZ_AMRZ01000023
p4343
S'PRJNA199808'
p4344
sVNZ_BAVI01000013
p4345
S'PRJNA224116'
p4346
sVNZ_DS178172
p4347
S'54587'
p4348
sVNZ_KB663310
p4349
S'195218'
p4350
sVNZ_JH976125
p4351
S'181743'
p4352
sVNZ_DS178170
p4353
S'54587'
p4354
sVNZ_JH377774
p4355
S'181604'
p4356
sVNZ_AHGI01000016
p4357
S'PRJNA190314'
p4358
sVNZ_AWMY01000111
p4359
S'PRJNA224116'
p4360
sVNZ_JH976128
p4361
S'181743'
p4362
sVNZ_KB663173
p4363
S'195220'
p4364
sVNZ_KB663175
p4365
S'195220'
p4366
sVNZ_AJYQ01000004
p4367
S'PRJNA200159'
p4368
sVNZ_AJZJ01000357
p4369
S'PRJNA200177'
p4370
sVNZ_JH973722
p4371
S'181735'
p4372
sVNZ_JH973723
p4373
S'181735'
p4374
sVNZ_KB663480
p4375
S'195214'
p4376
sVNZ_GL988610
p4377
S'181559'
p4378
sVNZ_AXNN01000029
p4379
S'PRJNA224116'
p4380
sVNZ_JH973724
p4381
S'181735'
p4382
sVNZ_JH973725
p4383
S'181735'
p4384
sVNZ_AXNN01000024
p4385
S'PRJNA224116'
p4386
sVNZ_AWMS01000026
p4387
S'PRJNA224116'
p4388
sVNZ_AXNN01000020
p4389
S'PRJNA224116'
p4390
sVNZ_KB662949
p4391
S'195219'
p4392
sVNZ_AWKI01000063
p4393
S'PRJNA224116'
p4394
sVNZ_JH966254
p4395
S'181722'
p4396
sVNZ_JH966256
p4397
S'181722'
p4398
sVNZ_AWHX01000129
p4399
S'PRJNA224116'
p4400
sVNZ_AWLZ01000271
p4401
S'PRJNA224116'
p4402
sVNZ_KB662760
p4403
S'195223'
p4404
sVNZ_AMWT01000059
p4405
S'PRJNA201363'
p4406
sVNZ_KB662573
p4407
S'195227'
p4408
sVNZ_AHGI01000001
p4409
S'PRJNA190314'
p4410
sVNZ_KB663554
p4411
S'195211'
p4412
sVNZ_AHGF01000005
p4413
S'PRJNA190314'
p4414
sVNZ_KB662311
p4415
S'195230'
p4416
sVNZ_AJZD01000320
p4417
S'PRJNA201499'
p4418
sVNZ_AHGI01000008
p4419
S'PRJNA190314'
p4420
sVNZ_AWIX01000054
p4421
S'PRJNA224116'
p4422
sVNZ_KB662759
p4423
S'195223'
p4424
sVNZ_AWMF01000071
p4425
S'PRJNA224116'
p4426
sVNZ_KB662755
p4427
S'195223'
p4428
sVNZ_KB662754
p4429
S'195223'
p4430
sVNZ_JH941276
p4431
S'181800'
p4432
sVNZ_JH724536
p4433
S'181806'
p4434
sVNZ_KB662942
p4435
S'195219'
p4436
sVNZ_AWMT01000018
p4437
S'PRJNA224116'
p4438
sVNZ_AHFY01000033
p4439
S'PRJNA190314'
p4440
sVNZ_AWKI01000232
p4441
S'PRJNA224116'
p4442
sVNZ_AHGA01000040
p4443
S'PRJNA190314'
p4444
sVNZ_AJYO01000176
p4445
S'PRJNA200157'
p4446
sVNZ_AJZF01000061
p4447
S'PRJNA200173'
p4448
sVNZ_AEQS01000162
p4449
S'PRJNA200502'
p4450
sVNZ_AJYZ01000044
p4451
S'PRJNA200168'
p4452
sVNZ_JH967815
p4453
S'181731'
p4454
sVNZ_JH967814
p4455
S'181731'
p4456
sVNZ_KB662479
p4457
S'195224'
p4458
sVNZ_JH967813
p4459
S'181731'
p4460
sVNZ_JH967812
p4461
S'181731'
p4462
sVNZ_GL988765
p4463
S'181560'
p4464
sVNZ_DS179999
p4465
S'54593'
p4466
sVNZ_AWJM01000042
p4467
S'PRJNA224116'
p4468
sVNZ_JH973823
p4469
S'181736'
p4470
sVNZ_JH973826
p4471
S'181736'
p4472
sVNZ_JH973829
p4473
S'181736'
p4474
sVNZ_AWWA01000052
p4475
S'PRJNA224116'
p4476
sVNZ_AIDD01000074
p4477
S'PRJNA200023'
p4478
sVNZ_GL988453
p4479
S'181558'
p4480
sVNZ_AWJD01000218
p4481
S'PRJNA224116'
p4482
sVNZ_AYNL01000178
p4483
S'PRJNA224116'
p4484
sVNZ_AJZL01000179
p4485
S'PRJNA200179'
p4486
sVNC_016613
p4487
S'83161'
p4488
sVNZ_AMBR01000016
p4489
S'PRJNA190520'
p4490
sVNZ_AWLO01000103
p4491
S'PRJNA224116'
p4492
sVNZ_AMBR01000011
p4493
S'PRJNA190520'
p4494
sVNZ_AMBR01000012
p4495
S'PRJNA190520'
p4496
sVNZ_AWMC01000047
p4497
S'PRJNA224116'
p4498
sVNZ_DS178113
p4499
S'54591'
p4500
sVNZ_AHGE01000016
p4501
S'PRJNA190314'
p4502
sVNZ_DS178115
p4503
S'54591'
p4504
sVNZ_AWLW01000060
p4505
S'PRJNA224116'
p4506
sVNZ_AEQS01000074
p4507
S'PRJNA200502'
p4508
sVNZ_AWIK01000015
p4509
S'PRJNA224116'
p4510
sVNZ_KB661942
p4511
S'195234'
p4512
sVNZ_AWLL01000111
p4513
S'PRJNA224116'
p4514
sVNZ_AJZD01000261
p4515
S'PRJNA201499'
p4516
sVNZ_AWKG01000108
p4517
S'PRJNA224116'
p4518
sVNZ_AXNK01000089
p4519
S'PRJNA224116'
p4520
sVNZ_AHGC01000045
p4521
S'PRJNA190314'
p4522
sVNZ_AWHL01000001
p4523
S'PRJNA224116'
p4524
sVNZ_AHGC01000049
p4525
S'PRJNA190314'
p4526
sVNZ_KB662997
p4527
S'195219'
p4528
sVNZ_KB662995
p4529
S'195219'
p4530
sVNZ_AWJH01000027
p4531
S'PRJNA224116'
p4532
sVNZ_AHGN01000017
p4533
S'PRJNA190314'
p4534
sVNZ_AWJH01000539
p4535
S'PRJNA224116'
p4536
sVNZ_AHGN01000015
p4537
S'PRJNA190314'
p4538
sVNZ_AHGN01000010
p4539
S'PRJNA190314'
p4540
sVNZ_JH942692
p4541
S'181792'
p4542
sVNZ_JH942693
p4543
S'181792'
p4544
sVNZ_JH942123
p4545
S'181801'
p4546
sVNZ_JPKT01000015
p4547
S'PRJNA224116'
p4548
sVNZ_AWKN01000040
p4549
S'PRJNA224116'
p4550
sVNZ_AWLJ01000151
p4551
S'PRJNA224116'
p4552
sVNZ_JH967786
p4553
S'181731'
p4554
sVNZ_AWLI01000156
p4555
S'PRJNA224116'
p4556
sVNZ_AJWN01000057
p4557
S'PRJNA200134'
p4558
sVNZ_AIDM01000034
p4559
S'PRJNA200031'
p4560
sVNZ_AWKH01000070
p4561
S'PRJNA224116'
p4562
sVNZ_AMBT01000021
p4563
S'PRJNA190522'
p4564
sVNZ_JH724509
p4565
S'181804'
p4566
sVNZ_AJZF01000073
p4567
S'PRJNA200173'
p4568
sVNZ_AWII01000114
p4569
S'PRJNA224116'
p4570
sVNZ_AHGL01000040
p4571
S'PRJNA190314'
p4572
sVNZ_ANHS01000120
p4573
S'PRJNA198283'
p4574
sVNZ_JH942236
p4575
S'181801'
p4576
sVNZ_JH942237
p4577
S'181801'
p4578
sVNZ_JH942230
p4579
S'181801'
p4580
sVNZ_AEZB01000086
p4581
S'PRJNA200508'
p4582
sVNZ_DS178248
p4583
S'54585'
p4584
sVNZ_AYNM01000182
p4585
S'PRJNA224116'
p4586
sVNZ_KB454389
p4587
S'183743'
p4588
sVNZ_DS178241
p4589
S'54585'
p4590
sVNZ_DS178243
p4591
S'54585'
p4592
sVNZ_JH636741
p4593
S'PRJNA200025'
p4594
sVNZ_AJZJ01000171
p4595
S'PRJNA200177'
p4596
sVNZ_AWKN01000136
p4597
S'PRJNA224116'
p4598
sVNZ_AELI01000077
p4599
S'PRJNA190213'
p4600
sVNZ_AWJO01000108
p4601
S'PRJNA224116'
p4602
sVNZ_AWLF01000233
p4603
S'PRJNA224116'
p4604
sVNZ_AWJE01000033
p4605
S'PRJNA224116'
p4606
sVNZ_AMWW01000109
p4607
S'PRJNA201366'
p4608
sVNZ_KB661621
p4609
S'195215'
p4610
sVNZ_AHGO01000002
p4611
S'PRJNA190314'
p4612
sVNZ_AWJZ01000094
p4613
S'PRJNA224116'
p4614
sVNZ_AWKK01000118
p4615
S'PRJNA224116'
p4616
sVNZ_AYOM01000134
p4617
S'PRJNA224116'
p4618
sVNZ_AWMR01000017
p4619
S'PRJNA224116'
p4620
sVNZ_AJYW01000134
p4621
S'PRJNA200165'
p4622
sVNZ_AWKW01000060
p4623
S'PRJNA224116'
p4624
sVNZ_AYNM01000058
p4625
S'PRJNA224116'
p4626
sVNZ_AWML01000239
p4627
S'PRJNA224116'
p4628
sVNZ_AHGN01000005
p4629
S'PRJNA190314'
p4630
sVNZ_AWIQ01000162
p4631
S'PRJNA224116'
p4632
sVNC_010112
p4633
S'62953'
p4634
sVNZ_AVOO01000057
p4635
S'PRJNA220563'
p4636
sVNZ_AIDG01000119
p4637
S'PRJNA200026'
p4638
sVNZ_AWMK01000113
p4639
S'PRJNA224116'
p4640
sVNZ_AWLF01000122
p4641
S'PRJNA224116'
p4642
sVNZ_AWLL01000342
p4643
S'PRJNA224116'
p4644
sVNZ_AWIB01000076
p4645
S'PRJNA224116'
p4646
sVNZ_JH941824
p4647
S'181805'
p4648
sVNZ_JH941825
p4649
S'181805'
p4650
sVNZ_KB663509
p4651
S'195214'
p4652
sVNZ_AWJJ01000009
p4653
S'PRJNA224116'
p4654
sVNZ_KB453849
p4655
S'183747'
p4656
sVNZ_JFGR01000013
p4657
S'PRJNA224116'
p4658
sVNZ_AHGG01000022
p4659
S'PRJNA190314'
p4660
sVNZ_AJYV01000134
p4661
S'PRJNA200164'
p4662
sVNZ_AWND01000018
p4663
S'PRJNA224116'
p4664
sVNZ_AYOM01000042
p4665
S'PRJNA224116'
p4666
sVNZ_AWHK01000069
p4667
S'PRJNA224116'
p4668
sVNZ_AWLY01000062
p4669
S'PRJNA224116'
p4670
sVNZ_AWLY01000063
p4671
S'PRJNA224116'
p4672
sVNZ_CH902611
p4673
S'54271'
p4674
sVNZ_AWNE01000194
p4675
S'PRJNA224116'
p4676
sVNZ_AJZI01000225
p4677
S'PRJNA200176'
p4678
sVNZ_AMBT01000011
p4679
S'PRJNA190522'
p4680
sVNZ_AMBT01000018
p4681
S'PRJNA190522'
p4682
sVNZ_JH941795
p4683
S'181805'
p4684
sVNZ_AWMK01000026
p4685
S'PRJNA224116'
p4686
sVNZ_AHGQ01000020
p4687
S'PRJNA190314'
p4688
sVNZ_JH973588
p4689
S'181738'
p4690
sVNZ_GL988117
p4691
S'181557'
p4692
sVNZ_GL988112
p4693
S'181557'
p4694
sVNZ_AWWA01000060
p4695
S'PRJNA224116'
p4696
sVNZ_AHGH01000022
p4697
S'PRJNA190314'
p4698
sVNZ_JH724980
p4699
S'181798'
p4700
sVNZ_JH724981
p4701
S'181798'
p4702
sVNZ_KB663521
p4703
S'195211'
p4704
sVNZ_JPLU01000001
p4705
S'PRJNA224116'
p4706
sVNZ_CM001785
p4707
S'189024'
p4708
sVNZ_CM001786
p4709
S'189024'
p4710
sVNZ_JPLU01000005
p4711
S'PRJNA224116'
p4712
sVNZ_AWML01000019
p4713
S'PRJNA224116'
p4714
sVNZ_AYNN01000142
p4715
S'PRJNA224116'
p4716
sVNZ_KB663368
p4717
S'195216'
p4718
sVNZ_KB663367
p4719
S'195216'
p4720
sVNZ_DS180064
p4721
S'54593'
p4722
sVNZ_KB663363
p4723
S'195216'
p4724
sVNZ_KB663362
p4725
S'195216'
p4726
sVNZ_JH976135
p4727
S'181739'
p4728
sVNZ_JH377762
p4729
S'181605'
p4730
sVNZ_JH377763
p4731
S'181605'
p4732
sVNZ_AHGA01000074
p4733
S'PRJNA190314'
p4734
sVNZ_JH976133
p4735
S'181743'
p4736
sVNZ_AWLM01000041
p4737
S'PRJNA224116'
p4738
sVNZ_GL989610
p4739
S'182021'
p4740
sVNZ_KB453712
p4741
S'183749'
p4742
sVNZ_KB453710
p4743
S'183749'
p4744
sVNZ_AWID01000124
p4745
S'PRJNA224116'
p4746
sVNZ_AWMM01000184
p4747
S'PRJNA224116'
p4748
sVNZ_AYNN01000072
p4749
S'PRJNA224116'
p4750
sVNZ_KB663101
p4751
S'195210'
p4752
sVNZ_AWKH01000094
p4753
S'PRJNA224116'
p4754
sVNZ_KB663108
p4755
S'195210'
p4756
sVNZ_AYNL01000053
p4757
S'PRJNA224116'
p4758
sVNZ_AIDQ01000081
p4759
S'PRJNA200035'
p4760
sVNZ_AHGM01000043
p4761
S'PRJNA190314'
p4762
sVNZ_AWMS01000037
p4763
S'PRJNA224116'
p4764
sVNZ_KB662560
p4765
S'195226'
p4766
sVNZ_AWHR01000286
p4767
S'PRJNA224116'
p4768
sVNZ_AWIA01000253
p4769
S'PRJNA224116'
p4770
sVNZ_CH902608
p4771
S'54271'
p4772
sVNZ_CH902600
p4773
S'54237'
p4774
sVNZ_AMWT01000041
p4775
S'PRJNA201363'
p4776
sVNZ_CH902606
p4777
S'54271'
p4778
sVNZ_AWJW01000275
p4779
S'PRJNA224116'
p4780
sVNZ_JH966219
p4781
S'181722'
p4782
sVNZ_GL989083
p4783
S'181562'
p4784
sVNZ_AWIX01000047
p4785
S'PRJNA224116'
p4786
sVNZ_GL989087
p4787
S'181562'
p4788
sVNZ_AWKJ01000045
p4789
S'PRJNA224116'
p4790
sVNZ_KB663583
p4791
S'195211'
p4792
sVNZ_AWMS01000146
p4793
S'PRJNA224116'
p4794
sVNZ_KB663585
p4795
S'195211'
p4796
sVNZ_KB663584
p4797
S'195211'
p4798
sVNZ_JH974086
p4799
S'181734'
p4800
sVNZ_JH974084
p4801
S'181734'
p4802
sVNZ_JH974085
p4803
S'181734'
p4804
sVNZ_AEQS01000154
p4805
S'PRJNA200502'
p4806
sVNZ_AJYZ01000050
p4807
S'PRJNA200168'
p4808
sVNZ_AWJP01000510
p4809
S'PRJNA224116'
p4810
sVNZ_JH967804
p4811
S'181731'
p4812
sVNZ_JH967805
p4813
S'181731'
p4814
sVNZ_ANBX01000145
p4815
S'PRJNA199863'
p4816
sVNZ_AJFN02000002
p4817
S'PRJNA190359'
p4818
sVNZ_JPLV01000072
p4819
S'PRJNA224116'
p4820
sVNZ_AWMQ01000040
p4821
S'PRJNA224116'
p4822
sVNZ_AWKC01000025
p4823
S'PRJNA224116'
p4824
sVNZ_AWKC01000026
p4825
S'PRJNA224116'
p4826
sVNZ_AHGI01000049
p4827
S'PRJNA190314'
p4828
sVNZ_JH973832
p4829
S'181736'
p4830
sVNZ_AEZB01000103
p4831
S'PRJNA200508'
p4832
sVNZ_JH973830
p4833
S'181736'
p4834
sVNZ_JH973831
p4835
S'181736'
p4836
sVNZ_AIDE01000028
p4837
S'PRJNA200024'
p4838
sVNZ_AEZB01000108
p4839
S'PRJNA200508'
p4840
sVNZ_AWIR01000061
p4841
S'PRJNA224116'
p4842
sVNZ_JH724878
p4843
S'181793'
p4844
sVNZ_AMBR01000025
p4845
S'PRJNA190520'
p4846
sVNZ_AJZA01000103
p4847
S'PRJNA200169'
p4848
sVNC_016602
p4849
S'82347'
p4850
sVNZ_AMBR01000026
p4851
S'PRJNA190520'
p4852
sVNZ_KB662539
p4853
S'195226'
p4854
sVNZ_JH966987
p4855
S'181725'
p4856
sVNZ_AJZC01000134
p4857
S'PRJNA200171'
p4858
sVNZ_AWKV01000236
p4859
S'PRJNA224116'
p4860
sVNZ_AJZQ01000018
p4861
S'PRJNA200184'
p4862
sVNZ_DS178067
p4863
S'54591'
p4864
sVNZ_AVOO01000049
p4865
S'PRJNA220563'
p4866
sVNC_002506
p4867
S'PRJNA57623'
p4868
sVNZ_JH967332
p4869
S'181727'
p4870
sVNZ_AWMG01000023
p4871
S'PRJNA224116'
p4872
sVNZ_JH941911
p4873
S'181799'
p4874
sVNZ_AJZD01000210
p4875
S'PRJNA201499'
p4876
sVNZ_GL989261
p4877
S'181563'
p4878
sVNZ_GL989260
p4879
S'181563'
p4880
sVNZ_GL989263
p4881
S'181563'
p4882
sVNZ_GL989262
p4883
S'181563'
p4884
sVNZ_GL989265
p4885
S'181563'
p4886
sVNZ_AWNA01000162
p4887
S'PRJNA224116'
p4888
sVNZ_AWHT01000020
p4889
S'PRJNA224116'
p4890
sVNZ_GL989063
p4891
S'181562'
p4892
sVNZ_GL989062
p4893
S'181562'
p4894
sVNZ_BAVG01000022
p4895
S'PRJNA224116'
p4896
sVNZ_AWHJ01000152
p4897
S'PRJNA224116'
p4898
sVNZ_JFGR01000042
p4899
S'PRJNA224116'
p4900
sVNZ_JH942111
p4901
S'181795'
p4902
sVNZ_AWWL01000323
p4903
S'PRJNA222908'
p4904
sVNZ_JH942112
p4905
S'181795'
p4906
sVNZ_DS178070
p4907
S'54591'
p4908
sVNZ_KB661509
p4909
S'195206'
p4910
sVNZ_KB661508
p4911
S'195206'
p4912
sVNZ_AWJQ01000023
p4913
S'PRJNA224116'
p4914
sVNZ_AELJ01000081
p4915
S'PRJNA190214'
p4916
sVNZ_AWKH01000063
p4917
S'PRJNA224116'
p4918
sVNZ_KB661507
p4919
S'195206'
p4920
sVNZ_KB661506
p4921
S'195206'
p4922
sVNZ_AWMS01000095
p4923
S'PRJNA224116'
p4924
sVNZ_JH724530
p4925
S'181804'
p4926
sVNZ_JH724533
p4927
S'181804'
p4928
sVNZ_JH724532
p4929
S'181804'
p4930
sVNZ_AHGL01000057
p4931
S'PRJNA190314'
p4932
sVNZ_AHGL01000050
p4933
S'PRJNA190314'
p4934
sVNZ_AHGL01000051
p4935
S'PRJNA190314'
p4936
sVNZ_ANHS01000113
p4937
S'PRJNA198283'
p4938
sVNZ_ANHS01000115
p4939
S'PRJNA198283'
p4940
sVNZ_ANHS01000118
p4941
S'PRJNA198283'
p4942
sVNZ_KB454392
p4943
S'183743'
p4944
sVNZ_JH636888
p4945
S'PRJNA200036'
p4946
sVNZ_KB454391
p4947
S'183743'
p4948
sVNZ_DS178258
p4949
S'54585'
p4950
sVNZ_DS178256
p4951
S'54585'
p4952
sVNZ_JH636885
p4953
S'PRJNA200036'
p4954
sVNZ_DS178250
p4955
S'54585'
p4956
sVNZ_JH967245
p4957
S'181726'
p4958
sVNZ_AWIV01000002
p4959
S'PRJNA224116'
p4960
sVNZ_JH967247
p4961
S'181726'
p4962
sVNZ_AWKL01000022
p4963
S'PRJNA224116'
p4964
sVNZ_JH967243
p4965
S'181726'
p4966
sVNZ_AWIV01000008
p4967
S'PRJNA224116'
p4968
sVNZ_AWMZ01000045
p4969
S'PRJNA224116'
p4970
sVNZ_KB661618
p4971
S'195231'
p4972
sVNC_005139
p4973
S'58007'
p4974
sVNZ_KB661615
p4975
S'195231'
p4976
sVNZ_AHGO01000034
p4977
S'PRJNA190314'
p4978
sVNZ_KB661617
p4979
S'195231'
p4980
sVNZ_AHGO01000036
p4981
S'PRJNA190314'
p4982
sVNZ_AHGO01000030
p4983
S'PRJNA190314'
p4984
sVNZ_AHGO01000032
p4985
S'PRJNA190314'
p4986
sVNZ_JH941816
p4987
S'181805'
p4988
sVNZ_JPKT01000008
p4989
S'PRJNA224116'
p4990
sVNZ_AWIC01000178
p4991
S'PRJNA224116'
p4992
sVNZ_AHGC01000053
p4993
S'PRJNA190314'
p4994
sVNZ_AYOM01000123
p4995
S'PRJNA224116'
p4996
sVNZ_AWMN01000110
p4997
S'PRJNA224116'
p4998
sVNZ_AWJG01000035
p4999
S'PRJNA224116'
p5000
sVNZ_AIDO01000057
p5001
S'PRJNA200033'
p5002
sVNZ_AWWL01000059
p5003
S'PRJNA222908'
p5004
sVNZ_AWWL01000058
p5005
S'PRJNA222908'
p5006
sVNZ_AIDJ01000090
p5007
S'PRJNA200028'
p5008
sVNZ_AVOO01000045
p5009
S'PRJNA220563'
p5010
sVNZ_AMWW01000052
p5011
S'PRJNA201366'
p5012
sVNZ_JH724365
p5013
S'181797'
p5014
sVNZ_ATEV02000017
p5015
S'PRJNA224116'
p5016
sVNZ_AJZN01000079
p5017
S'PRJNA200181'
p5018
sVNZ_AWMN01000022
p5019
S'PRJNA224116'
p5020
sVNZ_AHGK01000006
p5021
S'PRJNA190314'
p5022
sVNZ_JH941818
p5023
S'181805'
p5024
sVNZ_AYOM01000234
p5025
S'PRJNA224116'
p5026
sVNZ_KB453855
p5027
S'183747'
p5028
sVNZ_KB453856
p5029
S'183747'
p5030
sVNZ_KB453857
p5031
S'183747'
p5032
sVNZ_AWMN01000026
p5033
S'PRJNA224116'
p5034
sVNZ_KB453858
p5035
S'183747'
p5036
sVNZ_KB453859
p5037
S'183747'
p5038
sVNZ_AWMN01000021
p5039
S'PRJNA224116'
p5040
s.